

Microchip MPLAB XC8 Assembler V2.05 build -831301201 
                                                                                               Wed Feb 20 17:00:03 2019

Microchip MPLAB XC8 C Compiler v2.05 (Free license) build 20181220022703 Og1 
     1                           	processor	18F2520
     2                           	fnconf	rparam,??,?,0
     3                           	opt	pw 120
     4                           	opt	flic
     5                           	psect	smallconst,global,reloc=2,class=SMALLCONST,delta=1,noexec
     6                           	psect	cinit,global,reloc=2,class=CODE,delta=1
     7                           	psect	bssCOMRAM,global,class=COMRAM,space=1,delta=1,noexec
     8                           	psect	bssBANK0,global,class=BANK0,space=1,delta=1,lowdata,noexec
     9                           	psect	bssBANK1,global,class=BANK1,space=1,delta=1,lowdata,noexec
    10                           	psect	cstackBANK0,global,class=BANK0,space=1,delta=1,noexec
    11                           	psect	cstackCOMRAM,global,class=COMRAM,space=1,delta=1,noexec
    12                           	psect	text0,global,reloc=2,class=CODE,delta=1
    13                           	psect	text1,global,reloc=2,class=CODE,delta=1
    14                           	psect	text2,global,reloc=2,class=CODE,delta=1,group=2
    15                           	psect	text3,global,reloc=2,class=CODE,delta=1,group=2
    16                           	psect	text4,global,reloc=2,class=CODE,delta=1,group=1
    17                           	psect	text5,global,reloc=2,class=CODE,delta=1,group=2
    18                           	psect	text6,global,reloc=2,class=CODE,delta=1
    19                           	psect	text7,global,reloc=2,class=CODE,delta=1
    20                           	psect	text8,global,reloc=2,class=CODE,delta=1,group=2
    21                           	psect	text9,global,reloc=2,class=CODE,delta=1,group=2
    22                           	psect	text10,global,reloc=2,class=CODE,delta=1,group=2
    23                           	psect	text11,global,reloc=2,class=CODE,delta=1,group=2
    24                           	psect	text12,global,reloc=2,class=CODE,delta=1,group=2
    25                           	psect	text13,global,reloc=2,class=CODE,delta=1,group=2
    26                           	psect	text14,global,reloc=2,class=CODE,delta=1,group=1
    27                           	psect	text15,global,reloc=2,class=CODE,delta=1,group=1
    28                           	psect	text16,global,reloc=2,class=CODE,delta=1,group=1
    29                           	psect	text17,global,reloc=2,class=CODE,delta=1,group=1
    30                           	psect	text18,global,reloc=2,class=CODE,delta=1,group=1
    31                           	psect	text19,global,reloc=2,class=CODE,delta=1,group=1
    32                           	psect	text20,global,reloc=2,class=CODE,delta=1,group=1
    33                           	psect	text21,global,reloc=2,class=CODE,delta=1,group=1
    34                           	psect	text22,global,reloc=2,class=CODE,delta=1
    35                           	psect	text23,global,reloc=2,class=CODE,delta=1,group=1
    36                           	psect	intsave_regs,global,class=BIGRAM,space=1,delta=1,noexec
    37                           	psect	rparam,global,class=COMRAM,space=1,delta=1,noexec
    38  0000                     
    39                           ; Version 2.05
    40                           ; Generated 20/12/2018 GMT
    41                           ; 
    42                           ; Copyright © 2018, Microchip Technology Inc. and its subsidiaries ("Microchip")
    43                           ; All rights reserved.
    44                           ; 
    45                           ; This software is developed by Microchip Technology Inc. and its subsidiaries ("Microch
      +                          ip").
    46                           ; 
    47                           ; Redistribution and use in source and binary forms, with or without modification, are
    48                           ; permitted provided that the following conditions are met:
    49                           ; 
    50                           ;     1. Redistributions of source code must retain the above copyright notice, this lis
      +                          t of
    51                           ;        conditions and the following disclaimer.
    52                           ; 
    53                           ;     2. Redistributions in binary form must reproduce the above copyright notice, this 
      +                          list
    54                           ;        of conditions and the following disclaimer in the documentation and/or other
    55                           ;        materials provided with the distribution.
    56                           ; 
    57                           ;     3. Microchip's name may not be used to endorse or promote products derived from th
      +                          is
    58                           ;        software without specific prior written permission.
    59                           ; 
    60                           ; THIS SOFTWARE IS PROVIDED BY MICROCHIP "AS IS" AND ANY EXPRESS OR IMPLIED WARRANTIES,
    61                           ; INCLUDING, BUT NOT LIMITED TO, THE IMPLIED WARRANTIES OF MERCHANTABILITY AND FITNESS F
      +                          OR
    62                           ; PURPOSE ARE DISCLAIMED.  IN NO EVENT SHALL MICROCHIP BE LIABLE FOR ANY DIRECT, INDIREC
      +                          T,
    63                           ; INCIDENTAL, SPECIAL, EXEMPLARY, OR CONSEQUENTIAL DAMAGES (INCLUDING BUT NOT LIMITED TO
    64                           ; PROCUREMENT OF SUBSTITUTE GOODS OR SERVICES; LOSS OF USE, DATA OR PROFITS; OR BUSINESS
    65                           ; INTERRUPTION) HOWSOEVER CAUSED AND ON ANY THEORY OF LIABILITY, WHETHER IN CONTRACT, ST
      +                          RICT
    66                           ; LIABILITY, OR TORT (INCLUDING NEGLIGENCE OR OTHERWISE) ARISING IN ANY WAY OUT OF THE U
      +                          SE OF
    67                           ; THIS SOFTWARE, EVEN IF ADVISED OF THE POSSIBILITY OF SUCH DAMAGE.
    68                           ; 
    69                           ; 
    70                           ; Code-generator required, PIC18F2520 Definitions
    71                           ; 
    72                           ; SFR Addresses
    73  0000                     
    74                           	psect	smallconst
    75  000600                     __psmallconst:
    76                           	opt callstack 0
    77  000600  00                 	db	0
    78  000601                     _cosins:
    79                           	opt callstack 0
    80  000601  0000               	dw	0
    81  000603  3F80               	dw	16256
    82  000605  B22D               	dw	45613
    83  000607  3F5D               	dw	16221
    84  000609  0000               	dw	0
    85  00060B  3F00               	dw	16128
    86  00060D  0000               	dw	0
    87  00060F  0000               	dw	0
    88  000611  0000               	dw	0
    89  000613  BF00               	dw	48896
    90  000615  B22D               	dw	45613
    91  000617  BF5D               	dw	48989
    92  000619  0000               	dw	0
    93  00061B  BF80               	dw	49024
    94  00061D  B22D               	dw	45613
    95  00061F  BF5D               	dw	48989
    96  000621  0000               	dw	0
    97  000623  BF00               	dw	48896
    98  000625  0000               	dw	0
    99  000627  0000               	dw	0
   100  000629  0000               	dw	0
   101  00062B  3F00               	dw	16128
   102  00062D  B22D               	dw	45613
   103  00062F  3F5D               	dw	16221
   104  000631                     __end_of_cosins:
   105                           	opt callstack 0
   106  000631                     _sins:
   107                           	opt callstack 0
   108  000631  0000               	dw	0
   109  000633  0000               	dw	0
   110  000635  0000               	dw	0
   111  000637  3F00               	dw	16128
   112  000639  B22D               	dw	45613
   113  00063B  3F5D               	dw	16221
   114  00063D  0000               	dw	0
   115  00063F  3F80               	dw	16256
   116  000641  B22D               	dw	45613
   117  000643  3F5D               	dw	16221
   118  000645  0000               	dw	0
   119  000647  3F00               	dw	16128
   120  000649  0000               	dw	0
   121  00064B  0000               	dw	0
   122  00064D  0000               	dw	0
   123  00064F  BF00               	dw	48896
   124  000651  B22D               	dw	45613
   125  000653  BF5D               	dw	48989
   126  000655  0000               	dw	0
   127  000657  BF80               	dw	49024
   128  000659  B22D               	dw	45613
   129  00065B  BF5D               	dw	48989
   130  00065D  0000               	dw	0
   131  00065F  BF00               	dw	48896
   132  000661                     __end_of_sins:
   133                           	opt callstack 0
   134  000661                     _aT:
   135                           	opt callstack 0
   136  000661  AAA9               	dw	43689
   137  000663  3EAA               	dw	16042
   138  000665  CA98               	dw	51864
   139  000667  BE4C               	dw	48716
   140  000669  F50D               	dw	62733
   141  00066B  3E11               	dw	15889
   142  00066D  1247               	dw	4679
   143  00066F  BDDA               	dw	48602
   144  000671  AC25               	dw	44069
   145  000673  3D7C               	dw	15740
   146  000675                     __end_of_aT:
   147                           	opt callstack 0
   148  000675                     _atanlo:
   149                           	opt callstack 0
   150  000675  3769               	dw	14185
   151  000677  31AC               	dw	12716
   152  000679  2168               	dw	8552
   153  00067B  3322               	dw	13090
   154  00067D  0FB4               	dw	4020
   155  00067F  3314               	dw	13076
   156  000681  2168               	dw	8552
   157  000683  33A2               	dw	13218
   158  000685                     __end_of_atanlo:
   159                           	opt callstack 0
   160  000685                     _atanhi:
   161                           	opt callstack 0
   162  000685  6338               	dw	25400
   163  000687  3EED               	dw	16109
   164  000689  0FDA               	dw	4058
   165  00068B  3F49               	dw	16201
   166  00068D  985E               	dw	39006
   167  00068F  3F7B               	dw	16251
   168  000691  0FDA               	dw	4058
   169  000693  3FC9               	dw	16329
   170  000695                     __end_of_atanhi:
   171                           	opt callstack 0
   172  000695  4260               	dw	16992
   173  000697  0DA2               	dw	3490
   174  000699                     __end_of_tiny:
   175                           	opt callstack 0
   176  000699  BD2E               	dw	48430
   177  00069B  B3BB               	dw	46011
   178  00069D                     __end_of_pi_lo:
   179                           	opt callstack 0
   180  00069D  0FDB               	dw	4059
   181  00069F  4049               	dw	16457
   182  0006A1                     __end_of_pi:
   183                           	opt callstack 0
   184  0000                     _TXREG	set	4013
   185  0000                     _SPBRG	set	4015
   186  0000                     _LATCbits	set	3979
   187  0000                     _LATBbits	set	3978
   188  0000                     _TRISC	set	3988
   189  0000                     _TRISB	set	3987
   190  0000                     _TRMT	set	32097
   191  0000                     _TXEN	set	32101
   192  0000                     _CREN	set	32092
   193  0000                     _SPEN	set	32095
   194  0000                     _SYNC	set	32100
   195  0000                     _BRGH	set	32098
   196  0006A1                     STR_1:
   197  0006A1  00                 	db	0
   198  0000                     
   199                           ; #config settings
   200  0006A2  00                 	db	0	; dummy byte at the end
   201  0000                     
   202                           	psect	cinit
   203  003142                     __pcinit:
   204                           	opt callstack 0
   205  003142                     start_initialization:
   206                           	opt callstack 0
   207  003142                     __initialization:
   208                           	opt callstack 0
   209                           
   210                           ; Clear objects allocated to BANK1 (80 bytes)
   211  003142  EE01  F000         	lfsr	0,__pbssBANK1
   212  003146  0E50               	movlw	80
   213  003148                     clear_0:
   214  003148  6AEE               	clrf	postinc0,c
   215  00314A  06E8               	decf	wreg,f,c
   216  00314C  E1FD               	bnz	clear_0
   217                           
   218                           ; Clear objects allocated to BANK0 (46 bytes)
   219  00314E  EE00  F0D2         	lfsr	0,__pbssBANK0
   220  003152  0E2E               	movlw	46
   221  003154                     clear_1:
   222  003154  6AEE               	clrf	postinc0,c
   223  003156  06E8               	decf	wreg,f,c
   224  003158  E1FD               	bnz	clear_1
   225                           
   226                           ; Clear objects allocated to COMRAM (2 bytes)
   227  00315A  6A7F               	clrf	(__pbssCOMRAM+1)& (0+255),c
   228  00315C  6A7E               	clrf	__pbssCOMRAM& (0+255),c
   229  00315E                     end_of_initialization:
   230                           	opt callstack 0
   231  00315E                     __end_of__initialization:
   232                           	opt callstack 0
   233  00315E  0E00               	movlw	low (__Lmediumconst shr (0+16))
   234  003160  6EF8               	movwf	tblptru,c
   235  003162  0100               	movlb	0
   236  003164  EF55  F018         	goto	_main	;jump to C main() function
   237                           
   238                           	psect	bssCOMRAM
   239  00007E                     __pbssCOMRAM:
   240                           	opt callstack 0
   241  00007E                     _nout:
   242                           	opt callstack 0
   243  00007E                     	ds	2
   244                           
   245                           	psect	bssBANK0
   246  0000D2                     __pbssBANK0:
   247                           	opt callstack 0
   248  0000D2                     _vect:
   249                           	opt callstack 0
   250  0000D2                     	ds	8
   251  0000DA                     ___fpclassifyf@F463:
   252                           	opt callstack 0
   253  0000DA                     	ds	4
   254  0000DE                     fabsf@F463:
   255                           	opt callstack 0
   256  0000DE                     	ds	4
   257  0000E2                     _angle2:
   258                           	opt callstack 0
   259  0000E2                     	ds	4
   260  0000E6                     _angle:
   261                           	opt callstack 0
   262  0000E6                     	ds	4
   263  0000EA                     _dist:
   264                           	opt callstack 0
   265  0000EA                     	ds	4
   266  0000EE                     _tmp_x:
   267                           	opt callstack 0
   268  0000EE                     	ds	4
   269  0000F2                     _tmp_y:
   270                           	opt callstack 0
   271  0000F2                     	ds	4
   272  0000F6                     _errno:
   273                           	opt callstack 0
   274  0000F6                     	ds	2
   275  0000F8                     _width:
   276                           	opt callstack 0
   277  0000F8                     	ds	2
   278  0000FA                     _prec:
   279                           	opt callstack 0
   280  0000FA                     	ds	2
   281  0000FC                     _flags:
   282                           	opt callstack 0
   283  0000FC                     	ds	2
   284  0000FE                     _t:
   285                           	opt callstack 0
   286  0000FE                     	ds	2
   287                           
   288                           	psect	bssBANK1
   289  000100                     __pbssBANK1:
   290                           	opt callstack 0
   291  000100                     _s_data:
   292                           	opt callstack 0
   293  000100                     	ds	48
   294  000130                     	ds	32
   295                           
   296                           	psect	cstackBANK0
   297  000080                     __pcstackBANK0:
   298                           	opt callstack 0
   299  000080                     atanf@__xc8_float_word:
   300                           	opt callstack 0
   301                           
   302                           ; 4 bytes @ 0x0
   303  000080                     	ds	4
   304  000084                     _atanf$1017:
   305                           	opt callstack 0
   306                           
   307                           ; 4 bytes @ 0x4
   308  000084                     	ds	4
   309  000088                     _atanf$1019:
   310                           	opt callstack 0
   311                           
   312                           ; 4 bytes @ 0x8
   313  000088                     	ds	4
   314  00008C                     _atanf$1020:
   315                           	opt callstack 0
   316                           
   317                           ; 4 bytes @ 0xC
   318  00008C                     	ds	4
   319  000090                     atanf@s1:
   320                           	opt callstack 0
   321                           
   322                           ; 4 bytes @ 0x10
   323  000090                     	ds	4
   324  000094                     atanf@s2:
   325                           	opt callstack 0
   326                           
   327                           ; 4 bytes @ 0x14
   328  000094                     	ds	4
   329  000098                     atanf@sign:
   330                           	opt callstack 0
   331                           
   332                           ; 4 bytes @ 0x18
   333  000098                     	ds	4
   334  00009C                     _atanf$1016:
   335                           	opt callstack 0
   336                           
   337                           ; 4 bytes @ 0x1C
   338  00009C                     	ds	4
   339  0000A0                     _atanf$1018:
   340                           	opt callstack 0
   341                           
   342                           ; 4 bytes @ 0x20
   343  0000A0                     	ds	4
   344  0000A4                     atanf@w:
   345                           	opt callstack 0
   346                           
   347                           ; 4 bytes @ 0x24
   348  0000A4                     	ds	4
   349  0000A8                     atanf@id:
   350                           	opt callstack 0
   351                           
   352                           ; 2 bytes @ 0x28
   353  0000A8                     	ds	2
   354  0000AA                     atanf@z:
   355                           	opt callstack 0
   356                           
   357                           ; 4 bytes @ 0x2A
   358  0000AA                     	ds	4
   359  0000AE                     atanf@ix:
   360                           	opt callstack 0
   361                           
   362                           ; 4 bytes @ 0x2E
   363  0000AE                     	ds	4
   364  0000B2                     _atan2f$1013:
   365                           	opt callstack 0
   366                           
   367                           ; 4 bytes @ 0x32
   368  0000B2                     	ds	4
   369  0000B6                     _atan2f$1014:
   370                           	opt callstack 0
   371                           
   372                           ; 4 bytes @ 0x36
   373  0000B6                     	ds	4
   374  0000BA                     _atan2f$1015:
   375                           	opt callstack 0
   376                           
   377                           ; 4 bytes @ 0x3A
   378  0000BA                     	ds	4
   379  0000BE                     atan2f@__xc8_float_word:
   380                           	opt callstack 0
   381                           
   382                           ; 4 bytes @ 0x3E
   383  0000BE                     	ds	4
   384  0000C2                     atan2f@z:
   385                           	opt callstack 0
   386                           
   387                           ; 4 bytes @ 0x42
   388  0000C2                     	ds	4
   389  0000C6                     atan2f@ix:
   390                           	opt callstack 0
   391                           
   392                           ; 4 bytes @ 0x46
   393  0000C6                     	ds	4
   394  0000CA                     atan2f@iy:
   395                           	opt callstack 0
   396                           
   397                           ; 4 bytes @ 0x4A
   398  0000CA                     	ds	4
   399  0000CE                     atan2f@m:
   400                           	opt callstack 0
   401                           
   402                           ; 4 bytes @ 0x4E
   403  0000CE                     	ds	4
   404                           
   405                           	psect	cstackCOMRAM
   406  000001                     __pcstackCOMRAM:
   407                           	opt callstack 0
   408  000001                     ?___fpclassifyf:
   409                           	opt callstack 0
   410  000001                     ?___flmul:
   411                           	opt callstack 0
   412  000001                     ?_nanf:
   413                           	opt callstack 0
   414  000001                     ?___aldiv:
   415                           	opt callstack 0
   416  000001                     ?___flneg:
   417                           	opt callstack 0
   418  000001                     ?___fltol:
   419                           	opt callstack 0
   420  000001                     fputc@c:
   421                           	opt callstack 0
   422  000001                     nanf@s:
   423                           	opt callstack 0
   424  000001                     ___aldiv@dividend:
   425                           	opt callstack 0
   426  000001                     ___flge@ff1:
   427                           	opt callstack 0
   428  000001                     ___flneg@f1:
   429                           	opt callstack 0
   430  000001                     ___fltol@f1:
   431                           	opt callstack 0
   432  000001                     ___flmul@b:
   433                           	opt callstack 0
   434  000001                     ___fpclassifyf@x:
   435                           	opt callstack 0
   436                           
   437                           ; 4 bytes @ 0x0
   438  000001                     	ds	2
   439  000003                     fputc@fp:
   440                           	opt callstack 0
   441                           
   442                           ; 2 bytes @ 0x2
   443  000003                     	ds	2
   444  000005                     ??_fputc:
   445  000005                     ??___fpclassifyf:
   446  000005                     ??___fltol:
   447  000005                     ___aldiv@divisor:
   448                           	opt callstack 0
   449  000005                     ___flge@ff2:
   450                           	opt callstack 0
   451  000005                     ___flmul@a:
   452                           	opt callstack 0
   453  000005                     nanf@u:
   454                           	opt callstack 0
   455                           
   456                           ; 4 bytes @ 0x4
   457  000005                     	ds	4
   458  000009                     ??___flmul:
   459  000009                     ??___flge:
   460  000009                     ___aldiv@counter:
   461                           	opt callstack 0
   462  000009                     ___fltol@sign1:
   463                           	opt callstack 0
   464  000009                     ___fpclassifyf@e:
   465                           	opt callstack 0
   466                           
   467                           ; 2 bytes @ 0x8
   468  000009                     	ds	1
   469  00000A                     ?_vfpfcnvrt:
   470                           	opt callstack 0
   471  00000A                     ___aldiv@sign:
   472                           	opt callstack 0
   473  00000A                     ___fltol@exp1:
   474                           	opt callstack 0
   475  00000A                     vfpfcnvrt@fp:
   476                           	opt callstack 0
   477                           
   478                           ; 2 bytes @ 0x9
   479  00000A                     	ds	1
   480  00000B                     ?___awmod:
   481                           	opt callstack 0
   482  00000B                     ___awmod@dividend:
   483                           	opt callstack 0
   484  00000B                     ___aldiv@quotient:
   485                           	opt callstack 0
   486  00000B                     ___fpclassifyf@u:
   487                           	opt callstack 0
   488                           
   489                           ; 4 bytes @ 0xA
   490  00000B                     	ds	1
   491  00000C                     vfpfcnvrt@fmt:
   492                           	opt callstack 0
   493                           
   494                           ; 2 bytes @ 0xB
   495  00000C                     	ds	1
   496  00000D                     ___flmul@sign:
   497                           	opt callstack 0
   498  00000D                     ___awmod@divisor:
   499                           	opt callstack 0
   500                           
   501                           ; 2 bytes @ 0xC
   502  00000D                     	ds	1
   503  00000E                     vfpfcnvrt@ap:
   504                           	opt callstack 0
   505  00000E                     ___flmul@grs:
   506                           	opt callstack 0
   507                           
   508                           ; 4 bytes @ 0xD
   509  00000E                     	ds	1
   510  00000F                     ___awmod@counter:
   511                           	opt callstack 0
   512  00000F                     UART_Init@baudrate:
   513                           	opt callstack 0
   514                           
   515                           ; 4 bytes @ 0xE
   516  00000F                     	ds	1
   517  000010                     ?_vfprintf:
   518                           	opt callstack 0
   519  000010                     ___awmod@sign:
   520                           	opt callstack 0
   521  000010                     vfprintf@fp:
   522                           	opt callstack 0
   523                           
   524                           ; 2 bytes @ 0xF
   525  000010                     	ds	1
   526  000011                     ?___xxtofl:
   527                           	opt callstack 0
   528  000011                     ___xxtofl@val:
   529                           	opt callstack 0
   530                           
   531                           ; 4 bytes @ 0x10
   532  000011                     	ds	1
   533  000012                     ___flmul@aexp:
   534                           	opt callstack 0
   535  000012                     vfprintf@fmt:
   536                           	opt callstack 0
   537                           
   538                           ; 2 bytes @ 0x11
   539  000012                     	ds	1
   540  000013                     ??_UART_Init:
   541  000013                     ___flmul@bexp:
   542                           	opt callstack 0
   543                           
   544                           ; 1 bytes @ 0x12
   545  000013                     	ds	1
   546  000014                     vfprintf@ap:
   547                           	opt callstack 0
   548  000014                     ___flmul@prod:
   549                           	opt callstack 0
   550                           
   551                           ; 4 bytes @ 0x13
   552  000014                     	ds	1
   553  000015                     ??___xxtofl:
   554                           
   555                           ; 1 bytes @ 0x14
   556  000015                     	ds	1
   557  000016                     vfprintf@cfmt:
   558                           	opt callstack 0
   559                           
   560                           ; 2 bytes @ 0x15
   561  000016                     	ds	2
   562  000018                     ?_printf:
   563                           	opt callstack 0
   564  000018                     ___flmul@temp:
   565                           	opt callstack 0
   566  000018                     printf@fmt:
   567                           	opt callstack 0
   568                           
   569                           ; 2 bytes @ 0x17
   570  000018                     	ds	1
   571  000019                     ___xxtofl@sign:
   572                           	opt callstack 0
   573                           
   574                           ; 1 bytes @ 0x18
   575  000019                     	ds	1
   576  00001A                     ___xxtofl@exp:
   577                           	opt callstack 0
   578                           
   579                           ; 1 bytes @ 0x19
   580  00001A                     	ds	1
   581  00001B                     UART_Init@x:
   582                           	opt callstack 0
   583  00001B                     ___xxtofl@arg:
   584                           	opt callstack 0
   585                           
   586                           ; 4 bytes @ 0x1A
   587  00001B                     	ds	1
   588  00001C                     printf@ap:
   589                           	opt callstack 0
   590                           
   591                           ; 2 bytes @ 0x1B
   592  00001C                     	ds	3
   593  00001F                     ?___fladd:
   594                           	opt callstack 0
   595  00001F                     ___fladd@b:
   596                           	opt callstack 0
   597                           
   598                           ; 4 bytes @ 0x1E
   599  00001F                     	ds	4
   600  000023                     ___fladd@a:
   601                           	opt callstack 0
   602                           
   603                           ; 4 bytes @ 0x22
   604  000023                     	ds	4
   605  000027                     ??___fladd:
   606                           
   607                           ; 1 bytes @ 0x26
   608  000027                     	ds	4
   609  00002B                     ___fladd@signs:
   610                           	opt callstack 0
   611                           
   612                           ; 1 bytes @ 0x2A
   613  00002B                     	ds	1
   614  00002C                     ___fladd@aexp:
   615                           	opt callstack 0
   616                           
   617                           ; 1 bytes @ 0x2B
   618  00002C                     	ds	1
   619  00002D                     ___fladd@bexp:
   620                           	opt callstack 0
   621                           
   622                           ; 1 bytes @ 0x2C
   623  00002D                     	ds	1
   624  00002E                     ___fladd@grs:
   625                           	opt callstack 0
   626                           
   627                           ; 1 bytes @ 0x2D
   628  00002E                     	ds	1
   629  00002F                     ?_sqrtf:
   630                           	opt callstack 0
   631  00002F                     ?___fldiv:
   632                           	opt callstack 0
   633  00002F                     ?___flsub:
   634                           	opt callstack 0
   635  00002F                     ___flsub@b:
   636                           	opt callstack 0
   637  00002F                     ___fldiv@b:
   638                           	opt callstack 0
   639  00002F                     sqrtf@x:
   640                           	opt callstack 0
   641                           
   642                           ; 4 bytes @ 0x2E
   643  00002F                     	ds	4
   644  000033                     ??_sqrtf:
   645  000033                     ___flsub@a:
   646                           	opt callstack 0
   647  000033                     ___fldiv@a:
   648                           	opt callstack 0
   649                           
   650                           ; 4 bytes @ 0x32
   651  000033                     	ds	4
   652  000037                     ??___fldiv:
   653  000037                     
   654                           ; 1 bytes @ 0x36
   655  000037                     	ds	4
   656  00003B                     ___fldiv@rem:
   657                           	opt callstack 0
   658                           
   659                           ; 4 bytes @ 0x3A
   660  00003B                     	ds	1
   661  00003C                     sqrtf@s:
   662                           	opt callstack 0
   663                           
   664                           ; 4 bytes @ 0x3B
   665  00003C                     	ds	3
   666  00003F                     ___fldiv@sign:
   667                           	opt callstack 0
   668                           
   669                           ; 1 bytes @ 0x3E
   670  00003F                     	ds	1
   671  000040                     ___fldiv@new_exp:
   672                           	opt callstack 0
   673  000040                     sqrtf@i:
   674                           	opt callstack 0
   675                           
   676                           ; 4 bytes @ 0x3F
   677  000040                     	ds	2
   678  000042                     ___fldiv@grs:
   679                           	opt callstack 0
   680                           
   681                           ; 4 bytes @ 0x41
   682  000042                     	ds	2
   683  000044                     sqrtf@__xc8_float_word:
   684                           	opt callstack 0
   685                           
   686                           ; 4 bytes @ 0x43
   687  000044                     	ds	2
   688  000046                     ___fldiv@bexp:
   689                           	opt callstack 0
   690                           
   691                           ; 1 bytes @ 0x45
   692  000046                     	ds	1
   693  000047                     ___fldiv@aexp:
   694                           	opt callstack 0
   695                           
   696                           ; 1 bytes @ 0x46
   697  000047                     	ds	1
   698  000048                     ?_fabsf:
   699                           	opt callstack 0
   700  000048                     fabsf@x:
   701                           	opt callstack 0
   702  000048                     sqrtf@q:
   703                           	opt callstack 0
   704                           
   705                           ; 4 bytes @ 0x47
   706  000048                     	ds	4
   707  00004C                     fabsf@u:
   708                           	opt callstack 0
   709  00004C                     sqrtf@t:
   710                           	opt callstack 0
   711                           
   712                           ; 4 bytes @ 0x4B
   713  00004C                     	ds	4
   714  000050                     ?_atanf:
   715                           	opt callstack 0
   716  000050                     atanf@x:
   717                           	opt callstack 0
   718  000050                     sqrtf@z:
   719                           	opt callstack 0
   720                           
   721                           ; 4 bytes @ 0x4F
   722  000050                     	ds	4
   723  000054                     ??_atanf:
   724  000054                     sqrtf@m:
   725                           	opt callstack 0
   726                           
   727                           ; 4 bytes @ 0x53
   728  000054                     	ds	4
   729  000058                     ?_atan2f:
   730                           	opt callstack 0
   731  000058                     atan2f@y:
   732                           	opt callstack 0
   733  000058                     sqrtf@r:
   734                           	opt callstack 0
   735                           
   736                           ; 4 bytes @ 0x57
   737  000058                     	ds	4
   738  00005C                     atan2f@x:
   739                           	opt callstack 0
   740  00005C                     sqrtf@ix:
   741                           	opt callstack 0
   742                           
   743                           ; 4 bytes @ 0x5B
   744  00005C                     	ds	4
   745  000060                     ??_atan2f:
   746                           
   747                           ; 1 bytes @ 0x5F
   748  000060                     	ds	16
   749  000070                     ??_readSensors_old:
   750                           
   751                           ; 1 bytes @ 0x6F
   752  000070                     	ds	4
   753  000074                     _readSensors_old$1012:
   754                           	opt callstack 0
   755                           
   756                           ; 4 bytes @ 0x73
   757  000074                     	ds	4
   758  000078                     readSensors_old@i:
   759                           	opt callstack 0
   760                           
   761                           ; 2 bytes @ 0x77
   762  000078                     	ds	2
   763  00007A                     readSensors_old@i_171:
   764                           	opt callstack 0
   765                           
   766                           ; 2 bytes @ 0x79
   767  00007A                     	ds	2
   768  00007C                     ??_main:
   769                           
   770                           ; 1 bytes @ 0x7B
   771  00007C                     	ds	2
   772                           
   773 ;;
   774 ;;Main: autosize = 0, tempsize = 2, incstack = 0, save=0
   775 ;;
   776 ;; *************** function _main *****************
   777 ;; Defined at:
   778 ;;		line 81 in file "main.c"
   779 ;; Parameters:    Size  Location     Type
   780 ;;		None
   781 ;; Auto vars:     Size  Location     Type
   782 ;;		None
   783 ;; Return value:  Size  Location     Type
   784 ;;                  1    wreg      void 
   785 ;; Registers used:
   786 ;;		wreg, fsr1l, fsr1h, fsr2l, fsr2h, status,2, status,0, tblptrl, tblptrh, tblptru, prodl, prodh, cstack
   787 ;; Tracked objects:
   788 ;;		On entry : 0/0
   789 ;;		On exit  : 0/0
   790 ;;		Unchanged: 0/0
   791 ;; Data sizes:     COMRAM   BANK0   BANK1   BANK2   BANK3   BANK4   BANK5
   792 ;;      Params:         0       0       0       0       0       0       0
   793 ;;      Locals:         0       0       0       0       0       0       0
   794 ;;      Temps:          2       0       0       0       0       0       0
   795 ;;      Totals:         2       0       0       0       0       0       0
   796 ;;Total ram usage:        2 bytes
   797 ;; Hardware stack levels required when called:    6
   798 ;; This function calls:
   799 ;;		_UART_Init
   800 ;;		_readSensors_old
   801 ;; This function is called by:
   802 ;;		Startup code after reset
   803 ;; This function uses a non-reentrant model
   804 ;;
   805                           
   806                           	psect	text0
   807  0030AA                     __ptext0:
   808                           	opt callstack 0
   809  0030AA                     _main:
   810                           	opt callstack 25
   811                           
   812                           ;incstack = 0
   813  0030AA  6893               	setf	3987,c	;volatile
   814  0030AC  0EBF               	movlw	191
   815  0030AE  6E94               	movwf	3988,c	;volatile
   816  0030B0  0E00               	movlw	0
   817  0030B2  6E0F               	movwf	UART_Init@baudrate,c
   818  0030B4  0E96               	movlw	150
   819  0030B6  6E10               	movwf	UART_Init@baudrate+1,c
   820  0030B8  0E00               	movlw	0
   821  0030BA  6E11               	movwf	UART_Init@baudrate+2,c
   822  0030BC  0E00               	movlw	0
   823  0030BE  6E12               	movwf	UART_Init@baudrate+3,c
   824  0030C0  EC20  F015         	call	_UART_Init	;wreg free
   825  0030C4                     l3780:
   826  0030C4  EC52  F003         	call	_readSensors_old	;wreg free
   827  0030C8  0E02               	movlw	2
   828  0030CA  6E7D               	movwf	(??_main+1)& (0+255),c
   829  0030CC  0E45               	movlw	69
   830  0030CE  6E7C               	movwf	??_main& (0+255),c
   831  0030D0  0EAA               	movlw	170
   832  0030D2                     u4117:
   833  0030D2  2EE8               	decfsz	wreg,f,c
   834  0030D4  D7FE               	bra	u4117
   835  0030D6  2E7C               	decfsz	??_main& (0+255),f,c
   836  0030D8  D7FC               	bra	u4117
   837  0030DA  2E7D               	decfsz	(??_main+1)& (0+255),f,c
   838  0030DC  D7FA               	bra	u4117
   839  0030DE  D7F2               	goto	l3780
   840  0030E0                     __end_of_main:
   841                           	opt callstack 0
   842                           
   843 ;; *************** function _readSensors_old *****************
   844 ;; Defined at:
   845 ;;		line 97 in file "main.c"
   846 ;; Parameters:    Size  Location     Type
   847 ;;		None
   848 ;; Auto vars:     Size  Location     Type
   849 ;;  i               2  121[COMRAM] int 
   850 ;;  i               2  119[COMRAM] int 
   851 ;; Return value:  Size  Location     Type
   852 ;;                  1    wreg      void 
   853 ;; Registers used:
   854 ;;		wreg, fsr1l, fsr1h, fsr2l, fsr2h, status,2, status,0, tblptrl, tblptrh, tblptru, prodl, prodh, cstack
   855 ;; Tracked objects:
   856 ;;		On entry : 0/0
   857 ;;		On exit  : 0/0
   858 ;;		Unchanged: 0/0
   859 ;; Data sizes:     COMRAM   BANK0   BANK1   BANK2   BANK3   BANK4   BANK5
   860 ;;      Params:         0       0       0       0       0       0       0
   861 ;;      Locals:         8       0       0       0       0       0       0
   862 ;;      Temps:          4       0       0       0       0       0       0
   863 ;;      Totals:        12       0       0       0       0       0       0
   864 ;;Total ram usage:       12 bytes
   865 ;; Hardware stack levels used:    1
   866 ;; Hardware stack levels required when called:    5
   867 ;; This function calls:
   868 ;;		___awmod
   869 ;;		___fladd
   870 ;;		___fldiv
   871 ;;		___flge
   872 ;;		___flmul
   873 ;;		___fltol
   874 ;;		___xxtofl
   875 ;;		_atan2f
   876 ;;		_printf
   877 ;;		_sqrtf
   878 ;; This function is called by:
   879 ;;		_main
   880 ;; This function uses a non-reentrant model
   881 ;;
   882                           
   883                           	psect	text1
   884  0006A4                     __ptext1:
   885                           	opt callstack 0
   886  0006A4                     _readSensors_old:
   887                           	opt callstack 25
   888                           
   889                           ;incstack = 0
   890  0006A4  0E00               	movlw	0
   891  0006A6  6E79               	movwf	readSensors_old@i+1,c
   892  0006A8  0E00               	movlw	0
   893  0006AA  6E78               	movwf	readSensors_old@i,c
   894  0006AC                     l3726:
   895  0006AC  C100  F01F         	movff	_s_data,___fladd@b
   896  0006B0  C101  F020         	movff	_s_data+1,___fladd@b+1
   897  0006B4  C102  F021         	movff	_s_data+2,___fladd@b+2
   898  0006B8  C103  F022         	movff	_s_data+3,___fladd@b+3
   899  0006BC  B08A               	btfsc	3978,0,c	;volatile
   900  0006BE  D002               	goto	u3830
   901  0006C0  0E01               	movlw	1
   902  0006C2  D001               	goto	u3840
   903  0006C4                     u3830:
   904  0006C4  0E00               	movlw	0
   905  0006C6                     u3840:
   906  0006C6  6E11               	movwf	___xxtofl@val,c
   907  0006C8  6A12               	clrf	___xxtofl@val+1,c
   908  0006CA  6A13               	clrf	___xxtofl@val+2,c
   909  0006CC  6A14               	clrf	___xxtofl@val+3,c
   910  0006CE  0E01               	movlw	1
   911  0006D0  EC80  F014         	call	___xxtofl
   912  0006D4  C011  F023         	movff	?___xxtofl,___fladd@a
   913  0006D8  C012  F024         	movff	?___xxtofl+1,___fladd@a+1
   914  0006DC  C013  F025         	movff	?___xxtofl+2,___fladd@a+2
   915  0006E0  C014  F026         	movff	?___xxtofl+3,___fladd@a+3
   916  0006E4  ECB6  F011         	call	___fladd	;wreg free
   917  0006E8  C01F  F100         	movff	?___fladd,_s_data
   918  0006EC  C020  F101         	movff	?___fladd+1,_s_data+1
   919  0006F0  C021  F102         	movff	?___fladd+2,_s_data+2
   920  0006F4  C022  F103         	movff	?___fladd+3,_s_data+3
   921  0006F8  C104  F01F         	movff	_s_data+4,___fladd@b
   922  0006FC  C105  F020         	movff	_s_data+5,___fladd@b+1
   923  000700  C106  F021         	movff	_s_data+6,___fladd@b+2
   924  000704  C107  F022         	movff	_s_data+7,___fladd@b+3
   925  000708  B28A               	btfsc	3978,1,c	;volatile
   926  00070A  D002               	goto	u3850
   927  00070C  0E01               	movlw	1
   928  00070E  D001               	goto	u3860
   929  000710                     u3850:
   930  000710  0E00               	movlw	0
   931  000712                     u3860:
   932  000712  6E11               	movwf	___xxtofl@val,c
   933  000714  6A12               	clrf	___xxtofl@val+1,c
   934  000716  6A13               	clrf	___xxtofl@val+2,c
   935  000718  6A14               	clrf	___xxtofl@val+3,c
   936  00071A  0E01               	movlw	1
   937  00071C  EC80  F014         	call	___xxtofl
   938  000720  C011  F023         	movff	?___xxtofl,___fladd@a
   939  000724  C012  F024         	movff	?___xxtofl+1,___fladd@a+1
   940  000728  C013  F025         	movff	?___xxtofl+2,___fladd@a+2
   941  00072C  C014  F026         	movff	?___xxtofl+3,___fladd@a+3
   942  000730  ECB6  F011         	call	___fladd	;wreg free
   943  000734  C01F  F104         	movff	?___fladd,_s_data+4
   944  000738  C020  F105         	movff	?___fladd+1,_s_data+5
   945  00073C  C021  F106         	movff	?___fladd+2,_s_data+6
   946  000740  C022  F107         	movff	?___fladd+3,_s_data+7
   947  000744  C108  F01F         	movff	_s_data+8,___fladd@b
   948  000748  C109  F020         	movff	_s_data+9,___fladd@b+1
   949  00074C  C10A  F021         	movff	_s_data+10,___fladd@b+2
   950  000750  C10B  F022         	movff	_s_data+11,___fladd@b+3
   951  000754  B48A               	btfsc	3978,2,c	;volatile
   952  000756  D002               	goto	u3870
   953  000758  0E01               	movlw	1
   954  00075A  D001               	goto	u3880
   955  00075C                     u3870:
   956  00075C  0E00               	movlw	0
   957  00075E                     u3880:
   958  00075E  6E11               	movwf	___xxtofl@val,c
   959  000760  6A12               	clrf	___xxtofl@val+1,c
   960  000762  6A13               	clrf	___xxtofl@val+2,c
   961  000764  6A14               	clrf	___xxtofl@val+3,c
   962  000766  0E01               	movlw	1
   963  000768  EC80  F014         	call	___xxtofl
   964  00076C  C011  F023         	movff	?___xxtofl,___fladd@a
   965  000770  C012  F024         	movff	?___xxtofl+1,___fladd@a+1
   966  000774  C013  F025         	movff	?___xxtofl+2,___fladd@a+2
   967  000778  C014  F026         	movff	?___xxtofl+3,___fladd@a+3
   968  00077C  ECB6  F011         	call	___fladd	;wreg free
   969  000780  C01F  F108         	movff	?___fladd,_s_data+8
   970  000784  C020  F109         	movff	?___fladd+1,_s_data+9
   971  000788  C021  F10A         	movff	?___fladd+2,_s_data+10
   972  00078C  C022  F10B         	movff	?___fladd+3,_s_data+11
   973  000790  C10C  F01F         	movff	_s_data+12,___fladd@b
   974  000794  C10D  F020         	movff	_s_data+13,___fladd@b+1
   975  000798  C10E  F021         	movff	_s_data+14,___fladd@b+2
   976  00079C  C10F  F022         	movff	_s_data+15,___fladd@b+3
   977  0007A0  B68A               	btfsc	3978,3,c	;volatile
   978  0007A2  D002               	goto	u3890
   979  0007A4  0E01               	movlw	1
   980  0007A6  D001               	goto	u3900
   981  0007A8                     u3890:
   982  0007A8  0E00               	movlw	0
   983  0007AA                     u3900:
   984  0007AA  6E11               	movwf	___xxtofl@val,c
   985  0007AC  6A12               	clrf	___xxtofl@val+1,c
   986  0007AE  6A13               	clrf	___xxtofl@val+2,c
   987  0007B0  6A14               	clrf	___xxtofl@val+3,c
   988  0007B2  0E01               	movlw	1
   989  0007B4  EC80  F014         	call	___xxtofl
   990  0007B8  C011  F023         	movff	?___xxtofl,___fladd@a
   991  0007BC  C012  F024         	movff	?___xxtofl+1,___fladd@a+1
   992  0007C0  C013  F025         	movff	?___xxtofl+2,___fladd@a+2
   993  0007C4  C014  F026         	movff	?___xxtofl+3,___fladd@a+3
   994  0007C8  ECB6  F011         	call	___fladd	;wreg free
   995  0007CC  C01F  F10C         	movff	?___fladd,_s_data+12
   996  0007D0  C020  F10D         	movff	?___fladd+1,_s_data+13
   997  0007D4  C021  F10E         	movff	?___fladd+2,_s_data+14
   998  0007D8  C022  F10F         	movff	?___fladd+3,_s_data+15
   999  0007DC  C110  F01F         	movff	_s_data+16,___fladd@b
  1000  0007E0  C111  F020         	movff	_s_data+17,___fladd@b+1
  1001  0007E4  C112  F021         	movff	_s_data+18,___fladd@b+2
  1002  0007E8  C113  F022         	movff	_s_data+19,___fladd@b+3
  1003  0007EC  B88A               	btfsc	3978,4,c	;volatile
  1004  0007EE  D002               	goto	u3910
  1005  0007F0  0E01               	movlw	1
  1006  0007F2  D001               	goto	u3920
  1007  0007F4                     u3910:
  1008  0007F4  0E00               	movlw	0
  1009  0007F6                     u3920:
  1010  0007F6  6E11               	movwf	___xxtofl@val,c
  1011  0007F8  6A12               	clrf	___xxtofl@val+1,c
  1012  0007FA  6A13               	clrf	___xxtofl@val+2,c
  1013  0007FC  6A14               	clrf	___xxtofl@val+3,c
  1014  0007FE  0E01               	movlw	1
  1015  000800  EC80  F014         	call	___xxtofl
  1016  000804  C011  F023         	movff	?___xxtofl,___fladd@a
  1017  000808  C012  F024         	movff	?___xxtofl+1,___fladd@a+1
  1018  00080C  C013  F025         	movff	?___xxtofl+2,___fladd@a+2
  1019  000810  C014  F026         	movff	?___xxtofl+3,___fladd@a+3
  1020  000814  ECB6  F011         	call	___fladd	;wreg free
  1021  000818  C01F  F110         	movff	?___fladd,_s_data+16
  1022  00081C  C020  F111         	movff	?___fladd+1,_s_data+17
  1023  000820  C021  F112         	movff	?___fladd+2,_s_data+18
  1024  000824  C022  F113         	movff	?___fladd+3,_s_data+19
  1025  000828  C114  F01F         	movff	_s_data+20,___fladd@b
  1026  00082C  C115  F020         	movff	_s_data+21,___fladd@b+1
  1027  000830  C116  F021         	movff	_s_data+22,___fladd@b+2
  1028  000834  C117  F022         	movff	_s_data+23,___fladd@b+3
  1029  000838  BA8A               	btfsc	3978,5,c	;volatile
  1030  00083A  D002               	goto	u3930
  1031  00083C  0E01               	movlw	1
  1032  00083E  D001               	goto	u3940
  1033  000840                     u3930:
  1034  000840  0E00               	movlw	0
  1035  000842                     u3940:
  1036  000842  6E11               	movwf	___xxtofl@val,c
  1037  000844  6A12               	clrf	___xxtofl@val+1,c
  1038  000846  6A13               	clrf	___xxtofl@val+2,c
  1039  000848  6A14               	clrf	___xxtofl@val+3,c
  1040  00084A  0E01               	movlw	1
  1041  00084C  EC80  F014         	call	___xxtofl
  1042  000850  C011  F023         	movff	?___xxtofl,___fladd@a
  1043  000854  C012  F024         	movff	?___xxtofl+1,___fladd@a+1
  1044  000858  C013  F025         	movff	?___xxtofl+2,___fladd@a+2
  1045  00085C  C014  F026         	movff	?___xxtofl+3,___fladd@a+3
  1046  000860  ECB6  F011         	call	___fladd	;wreg free
  1047  000864  C01F  F114         	movff	?___fladd,_s_data+20
  1048  000868  C020  F115         	movff	?___fladd+1,_s_data+21
  1049  00086C  C021  F116         	movff	?___fladd+2,_s_data+22
  1050  000870  C022  F117         	movff	?___fladd+3,_s_data+23
  1051  000874  C118  F01F         	movff	_s_data+24,___fladd@b
  1052  000878  C119  F020         	movff	_s_data+25,___fladd@b+1
  1053  00087C  C11A  F021         	movff	_s_data+26,___fladd@b+2
  1054  000880  C11B  F022         	movff	_s_data+27,___fladd@b+3
  1055  000884  BC8A               	btfsc	3978,6,c	;volatile
  1056  000886  D002               	goto	u3950
  1057  000888  0E01               	movlw	1
  1058  00088A  D001               	goto	u3960
  1059  00088C                     u3950:
  1060  00088C  0E00               	movlw	0
  1061  00088E                     u3960:
  1062  00088E  6E11               	movwf	___xxtofl@val,c
  1063  000890  6A12               	clrf	___xxtofl@val+1,c
  1064  000892  6A13               	clrf	___xxtofl@val+2,c
  1065  000894  6A14               	clrf	___xxtofl@val+3,c
  1066  000896  0E01               	movlw	1
  1067  000898  EC80  F014         	call	___xxtofl
  1068  00089C  C011  F023         	movff	?___xxtofl,___fladd@a
  1069  0008A0  C012  F024         	movff	?___xxtofl+1,___fladd@a+1
  1070  0008A4  C013  F025         	movff	?___xxtofl+2,___fladd@a+2
  1071  0008A8  C014  F026         	movff	?___xxtofl+3,___fladd@a+3
  1072  0008AC  ECB6  F011         	call	___fladd	;wreg free
  1073  0008B0  C01F  F118         	movff	?___fladd,_s_data+24
  1074  0008B4  C020  F119         	movff	?___fladd+1,_s_data+25
  1075  0008B8  C021  F11A         	movff	?___fladd+2,_s_data+26
  1076  0008BC  C022  F11B         	movff	?___fladd+3,_s_data+27
  1077  0008C0  C11C  F01F         	movff	_s_data+28,___fladd@b
  1078  0008C4  C11D  F020         	movff	_s_data+29,___fladd@b+1
  1079  0008C8  C11E  F021         	movff	_s_data+30,___fladd@b+2
  1080  0008CC  C11F  F022         	movff	_s_data+31,___fladd@b+3
  1081  0008D0  BE8A               	btfsc	3978,7,c	;volatile
  1082  0008D2  D002               	goto	u3970
  1083  0008D4  0E01               	movlw	1
  1084  0008D6  D001               	goto	u3980
  1085  0008D8                     u3970:
  1086  0008D8  0E00               	movlw	0
  1087  0008DA                     u3980:
  1088  0008DA  6E11               	movwf	___xxtofl@val,c
  1089  0008DC  6A12               	clrf	___xxtofl@val+1,c
  1090  0008DE  6A13               	clrf	___xxtofl@val+2,c
  1091  0008E0  6A14               	clrf	___xxtofl@val+3,c
  1092  0008E2  0E01               	movlw	1
  1093  0008E4  EC80  F014         	call	___xxtofl
  1094  0008E8  C011  F023         	movff	?___xxtofl,___fladd@a
  1095  0008EC  C012  F024         	movff	?___xxtofl+1,___fladd@a+1
  1096  0008F0  C013  F025         	movff	?___xxtofl+2,___fladd@a+2
  1097  0008F4  C014  F026         	movff	?___xxtofl+3,___fladd@a+3
  1098  0008F8  ECB6  F011         	call	___fladd	;wreg free
  1099  0008FC  C01F  F11C         	movff	?___fladd,_s_data+28
  1100  000900  C020  F11D         	movff	?___fladd+1,_s_data+29
  1101  000904  C021  F11E         	movff	?___fladd+2,_s_data+30
  1102  000908  C022  F11F         	movff	?___fladd+3,_s_data+31
  1103  00090C  C120  F01F         	movff	_s_data+32,___fladd@b
  1104  000910  C121  F020         	movff	_s_data+33,___fladd@b+1
  1105  000914  C122  F021         	movff	_s_data+34,___fladd@b+2
  1106  000918  C123  F022         	movff	_s_data+35,___fladd@b+3
  1107  00091C  B08B               	btfsc	3979,0,c	;volatile
  1108  00091E  D002               	goto	u3990
  1109  000920  0E01               	movlw	1
  1110  000922  D001               	goto	u4000
  1111  000924                     u3990:
  1112  000924  0E00               	movlw	0
  1113  000926                     u4000:
  1114  000926  6E11               	movwf	___xxtofl@val,c
  1115  000928  6A12               	clrf	___xxtofl@val+1,c
  1116  00092A  6A13               	clrf	___xxtofl@val+2,c
  1117  00092C  6A14               	clrf	___xxtofl@val+3,c
  1118  00092E  0E01               	movlw	1
  1119  000930  EC80  F014         	call	___xxtofl
  1120  000934  C011  F023         	movff	?___xxtofl,___fladd@a
  1121  000938  C012  F024         	movff	?___xxtofl+1,___fladd@a+1
  1122  00093C  C013  F025         	movff	?___xxtofl+2,___fladd@a+2
  1123  000940  C014  F026         	movff	?___xxtofl+3,___fladd@a+3
  1124  000944  ECB6  F011         	call	___fladd	;wreg free
  1125  000948  C01F  F120         	movff	?___fladd,_s_data+32
  1126  00094C  C020  F121         	movff	?___fladd+1,_s_data+33
  1127  000950  C021  F122         	movff	?___fladd+2,_s_data+34
  1128  000954  C022  F123         	movff	?___fladd+3,_s_data+35
  1129  000958  C124  F01F         	movff	_s_data+36,___fladd@b
  1130  00095C  C125  F020         	movff	_s_data+37,___fladd@b+1
  1131  000960  C126  F021         	movff	_s_data+38,___fladd@b+2
  1132  000964  C127  F022         	movff	_s_data+39,___fladd@b+3
  1133  000968  B28B               	btfsc	3979,1,c	;volatile
  1134  00096A  D002               	goto	u4010
  1135  00096C  0E01               	movlw	1
  1136  00096E  D001               	goto	u4020
  1137  000970                     u4010:
  1138  000970  0E00               	movlw	0
  1139  000972                     u4020:
  1140  000972  6E11               	movwf	___xxtofl@val,c
  1141  000974  6A12               	clrf	___xxtofl@val+1,c
  1142  000976  6A13               	clrf	___xxtofl@val+2,c
  1143  000978  6A14               	clrf	___xxtofl@val+3,c
  1144  00097A  0E01               	movlw	1
  1145  00097C  EC80  F014         	call	___xxtofl
  1146  000980  C011  F023         	movff	?___xxtofl,___fladd@a
  1147  000984  C012  F024         	movff	?___xxtofl+1,___fladd@a+1
  1148  000988  C013  F025         	movff	?___xxtofl+2,___fladd@a+2
  1149  00098C  C014  F026         	movff	?___xxtofl+3,___fladd@a+3
  1150  000990  ECB6  F011         	call	___fladd	;wreg free
  1151  000994  C01F  F124         	movff	?___fladd,_s_data+36
  1152  000998  C020  F125         	movff	?___fladd+1,_s_data+37
  1153  00099C  C021  F126         	movff	?___fladd+2,_s_data+38
  1154  0009A0  C022  F127         	movff	?___fladd+3,_s_data+39
  1155  0009A4  C128  F01F         	movff	_s_data+40,___fladd@b
  1156  0009A8  C129  F020         	movff	_s_data+41,___fladd@b+1
  1157  0009AC  C12A  F021         	movff	_s_data+42,___fladd@b+2
  1158  0009B0  C12B  F022         	movff	_s_data+43,___fladd@b+3
  1159  0009B4  B48B               	btfsc	3979,2,c	;volatile
  1160  0009B6  D002               	goto	u4030
  1161  0009B8  0E01               	movlw	1
  1162  0009BA  D001               	goto	u4040
  1163  0009BC                     u4030:
  1164  0009BC  0E00               	movlw	0
  1165  0009BE                     u4040:
  1166  0009BE  6E11               	movwf	___xxtofl@val,c
  1167  0009C0  6A12               	clrf	___xxtofl@val+1,c
  1168  0009C2  6A13               	clrf	___xxtofl@val+2,c
  1169  0009C4  6A14               	clrf	___xxtofl@val+3,c
  1170  0009C6  0E01               	movlw	1
  1171  0009C8  EC80  F014         	call	___xxtofl
  1172  0009CC  C011  F023         	movff	?___xxtofl,___fladd@a
  1173  0009D0  C012  F024         	movff	?___xxtofl+1,___fladd@a+1
  1174  0009D4  C013  F025         	movff	?___xxtofl+2,___fladd@a+2
  1175  0009D8  C014  F026         	movff	?___xxtofl+3,___fladd@a+3
  1176  0009DC  ECB6  F011         	call	___fladd	;wreg free
  1177  0009E0  C01F  F128         	movff	?___fladd,_s_data+40
  1178  0009E4  C020  F129         	movff	?___fladd+1,_s_data+41
  1179  0009E8  C021  F12A         	movff	?___fladd+2,_s_data+42
  1180  0009EC  C022  F12B         	movff	?___fladd+3,_s_data+43
  1181  0009F0  C12C  F01F         	movff	_s_data+44,___fladd@b
  1182  0009F4  C12D  F020         	movff	_s_data+45,___fladd@b+1
  1183  0009F8  C12E  F021         	movff	_s_data+46,___fladd@b+2
  1184  0009FC  C12F  F022         	movff	_s_data+47,___fladd@b+3
  1185  000A00  B68B               	btfsc	3979,3,c	;volatile
  1186  000A02  D002               	goto	u4050
  1187  000A04  0E01               	movlw	1
  1188  000A06  D001               	goto	u4060
  1189  000A08                     u4050:
  1190  000A08  0E00               	movlw	0
  1191  000A0A                     u4060:
  1192  000A0A  6E11               	movwf	___xxtofl@val,c
  1193  000A0C  6A12               	clrf	___xxtofl@val+1,c
  1194  000A0E  6A13               	clrf	___xxtofl@val+2,c
  1195  000A10  6A14               	clrf	___xxtofl@val+3,c
  1196  000A12  0E01               	movlw	1
  1197  000A14  EC80  F014         	call	___xxtofl
  1198  000A18  C011  F023         	movff	?___xxtofl,___fladd@a
  1199  000A1C  C012  F024         	movff	?___xxtofl+1,___fladd@a+1
  1200  000A20  C013  F025         	movff	?___xxtofl+2,___fladd@a+2
  1201  000A24  C014  F026         	movff	?___xxtofl+3,___fladd@a+3
  1202  000A28  ECB6  F011         	call	___fladd	;wreg free
  1203  000A2C  C01F  F12C         	movff	?___fladd,_s_data+44
  1204  000A30  C020  F12D         	movff	?___fladd+1,_s_data+45
  1205  000A34  C021  F12E         	movff	?___fladd+2,_s_data+46
  1206  000A38  C022  F12F         	movff	?___fladd+3,_s_data+47
  1207  000A3C  4A78               	infsnz	readSensors_old@i,f,c
  1208  000A3E  2A79               	incf	readSensors_old@i+1,f,c
  1209  000A40  BE79               	btfsc	readSensors_old@i+1,7,c
  1210  000A42  D634               	goto	l3726
  1211  000A44  5079               	movf	readSensors_old@i+1,w,c
  1212  000A46  E103               	bnz	u4070
  1213  000A48  2878               	incf	readSensors_old@i,w,c
  1214  000A4A  A0D8               	btfss	status,0,c
  1215  000A4C  D62F               	goto	l3726
  1216  000A4E                     u4070:
  1217  000A4E  0EA1               	movlw	low STR_1
  1218  000A50  6E18               	movwf	printf@fmt,c
  1219  000A52  0E06               	movlw	high STR_1
  1220  000A54  6E19               	movwf	printf@fmt+1,c
  1221  000A56  ECB4  F018         	call	_printf	;wreg free
  1222  000A5A  0E00               	movlw	0
  1223  000A5C  6E7B               	movwf	readSensors_old@i_171+1,c
  1224  000A5E  0E00               	movlw	0
  1225  000A60  6E7A               	movwf	readSensors_old@i_171,c
  1226  000A62                     l3740:
  1227  000A62  0E00               	movlw	low _s_data
  1228  000A64  6E70               	movwf	??_readSensors_old& (0+255),c
  1229  000A66  0E01               	movlw	high _s_data
  1230  000A68  6E71               	movwf	(??_readSensors_old+1)& (0+255),c
  1231  000A6A  90D8               	bcf	status,0,c
  1232  000A6C  347A               	rlcf	readSensors_old@i_171,w,c
  1233  000A6E  6ED9               	movwf	fsr2l,c
  1234  000A70  347B               	rlcf	readSensors_old@i_171+1,w,c
  1235  000A72  6EDA               	movwf	fsr2h,c
  1236  000A74  90D8               	bcf	status,0,c
  1237  000A76  36D9               	rlcf	fsr2l,f,c
  1238  000A78  36DA               	rlcf	fsr2h,f,c
  1239  000A7A  5070               	movf	??_readSensors_old,w,c
  1240  000A7C  26D9               	addwf	fsr2l,f,c
  1241  000A7E  5071               	movf	??_readSensors_old+1,w,c
  1242  000A80  22DA               	addwfc	fsr2h,f,c
  1243  000A82  CFDE F001          	movff	postinc2,___flge@ff1
  1244  000A86  CFDE F002          	movff	postinc2,___flge@ff1+1
  1245  000A8A  CFDE F003          	movff	postinc2,___flge@ff1+2
  1246  000A8E  CFDE F004          	movff	postinc2,___flge@ff1+3
  1247  000A92  0E00               	movlw	0
  1248  000A94  6E05               	movwf	___flge@ff2,c
  1249  000A96  0E00               	movlw	0
  1250  000A98  6E06               	movwf	___flge@ff2+1,c
  1251  000A9A  0EF0               	movlw	240
  1252  000A9C  6E07               	movwf	___flge@ff2+2,c
  1253  000A9E  0E41               	movlw	65
  1254  000AA0  6E08               	movwf	___flge@ff2+3,c
  1255  000AA2  ECA2  F015         	call	___flge	;wreg free
  1256  000AA6  A0D8               	btfss	status,0,c
  1257  000AA8  D024               	goto	u4090
  1258  000AAA  0E00               	movlw	0
  1259  000AAC  6E01               	movwf	___flge@ff1,c
  1260  000AAE  0E00               	movlw	0
  1261  000AB0  6E02               	movwf	___flge@ff1+1,c
  1262  000AB2  0E7D               	movlw	125
  1263  000AB4  6E03               	movwf	___flge@ff1+2,c
  1264  000AB6  0E43               	movlw	67
  1265  000AB8  6E04               	movwf	___flge@ff1+3,c
  1266  000ABA  0E00               	movlw	low _s_data
  1267  000ABC  6E70               	movwf	??_readSensors_old& (0+255),c
  1268  000ABE  0E01               	movlw	high _s_data
  1269  000AC0  6E71               	movwf	(??_readSensors_old+1)& (0+255),c
  1270  000AC2  90D8               	bcf	status,0,c
  1271  000AC4  347A               	rlcf	readSensors_old@i_171,w,c
  1272  000AC6  6ED9               	movwf	fsr2l,c
  1273  000AC8  347B               	rlcf	readSensors_old@i_171+1,w,c
  1274  000ACA  6EDA               	movwf	fsr2h,c
  1275  000ACC  90D8               	bcf	status,0,c
  1276  000ACE  36D9               	rlcf	fsr2l,f,c
  1277  000AD0  36DA               	rlcf	fsr2h,f,c
  1278  000AD2  5070               	movf	??_readSensors_old,w,c
  1279  000AD4  26D9               	addwf	fsr2l,f,c
  1280  000AD6  5071               	movf	??_readSensors_old+1,w,c
  1281  000AD8  22DA               	addwfc	fsr2h,f,c
  1282  000ADA  CFDE F005          	movff	postinc2,___flge@ff2
  1283  000ADE  CFDE F006          	movff	postinc2,___flge@ff2+1
  1284  000AE2  CFDE F007          	movff	postinc2,___flge@ff2+2
  1285  000AE6  CFDE F008          	movff	postinc2,___flge@ff2+3
  1286  000AEA  ECA2  F015         	call	___flge	;wreg free
  1287  000AEE  B0D8               	btfsc	status,0,c
  1288  000AF0  D018               	goto	l3746
  1289  000AF2                     u4090:
  1290  000AF2  0E00               	movlw	low _s_data
  1291  000AF4  6E70               	movwf	??_readSensors_old& (0+255),c
  1292  000AF6  0E01               	movlw	high _s_data
  1293  000AF8  6E71               	movwf	(??_readSensors_old+1)& (0+255),c
  1294  000AFA  90D8               	bcf	status,0,c
  1295  000AFC  347A               	rlcf	readSensors_old@i_171,w,c
  1296  000AFE  6ED9               	movwf	fsr2l,c
  1297  000B00  347B               	rlcf	readSensors_old@i_171+1,w,c
  1298  000B02  6EDA               	movwf	fsr2h,c
  1299  000B04  90D8               	bcf	status,0,c
  1300  000B06  36D9               	rlcf	fsr2l,f,c
  1301  000B08  36DA               	rlcf	fsr2h,f,c
  1302  000B0A  5070               	movf	??_readSensors_old,w,c
  1303  000B0C  26D9               	addwf	fsr2l,f,c
  1304  000B0E  5071               	movf	??_readSensors_old+1,w,c
  1305  000B10  22DA               	addwfc	fsr2h,f,c
  1306  000B12  0E00               	movlw	0
  1307  000B14  6EDE               	movwf	postinc2,c
  1308  000B16  0E00               	movlw	0
  1309  000B18  6EDE               	movwf	postinc2,c
  1310  000B1A  0E00               	movlw	0
  1311  000B1C  6EDE               	movwf	postinc2,c
  1312  000B1E  0E00               	movlw	0
  1313  000B20  6EDD               	movwf	postdec2,c
  1314  000B22                     l3746:
  1315  000B22  0E00               	movlw	low _s_data
  1316  000B24  6E70               	movwf	??_readSensors_old& (0+255),c
  1317  000B26  0E01               	movlw	high _s_data
  1318  000B28  6E71               	movwf	(??_readSensors_old+1)& (0+255),c
  1319  000B2A  90D8               	bcf	status,0,c
  1320  000B2C  347A               	rlcf	readSensors_old@i_171,w,c
  1321  000B2E  6ED9               	movwf	fsr2l,c
  1322  000B30  347B               	rlcf	readSensors_old@i_171+1,w,c
  1323  000B32  6EDA               	movwf	fsr2h,c
  1324  000B34  90D8               	bcf	status,0,c
  1325  000B36  36D9               	rlcf	fsr2l,f,c
  1326  000B38  36DA               	rlcf	fsr2h,f,c
  1327  000B3A  5070               	movf	??_readSensors_old,w,c
  1328  000B3C  26D9               	addwf	fsr2l,f,c
  1329  000B3E  5071               	movf	??_readSensors_old+1,w,c
  1330  000B40  22DA               	addwfc	fsr2h,f,c
  1331  000B42  CFDE F001          	movff	postinc2,___flmul@b
  1332  000B46  CFDE F002          	movff	postinc2,___flmul@b+1
  1333  000B4A  CFDE F003          	movff	postinc2,___flmul@b+2
  1334  000B4E  CFDE F004          	movff	postinc2,___flmul@b+3
  1335  000B52  C07A  F072         	movff	readSensors_old@i_171,??_readSensors_old+2
  1336  000B56  C07B  F073         	movff	readSensors_old@i_171+1,??_readSensors_old+3
  1337  000B5A  90D8               	bcf	status,0,c
  1338  000B5C  3672               	rlcf	??_readSensors_old+2,f,c
  1339  000B5E  3673               	rlcf	??_readSensors_old+3,f,c
  1340  000B60  90D8               	bcf	status,0,c
  1341  000B62  3672               	rlcf	??_readSensors_old+2,f,c
  1342  000B64  3673               	rlcf	??_readSensors_old+3,f,c
  1343  000B66  0E31               	movlw	low _sins
  1344  000B68  2472               	addwf	??_readSensors_old+2,w,c
  1345  000B6A  6EF6               	movwf	tblptrl,c
  1346  000B6C  0E06               	movlw	high _sins
  1347  000B6E  2073               	addwfc	??_readSensors_old+3,w,c
  1348  000B70  6EF7               	movwf	tblptrh,c
  1349  000B72                     	if	0	;There are less than 3 active tblptr bytes
  1350  000B72                     	endif
  1351  000B72  0009               	tblrd		*+
  1352  000B74  CFF5 F005          	movff	tablat,___flmul@a
  1353  000B78  0009               	tblrd		*+
  1354  000B7A  CFF5 F006          	movff	tablat,___flmul@a+1
  1355  000B7E  0009               	tblrd		*+
  1356  000B80  CFF5 F007          	movff	tablat,___flmul@a+2
  1357  000B84  000A               	tblrd		*-
  1358  000B86  CFF5 F008          	movff	tablat,___flmul@a+3
  1359  000B8A  EC0D  F010         	call	___flmul	;wreg free
  1360  000B8E  C001  F0F2         	movff	?___flmul,_tmp_y
  1361  000B92  C002  F0F3         	movff	?___flmul+1,_tmp_y+1
  1362  000B96  C003  F0F4         	movff	?___flmul+2,_tmp_y+2
  1363  000B9A  C004  F0F5         	movff	?___flmul+3,_tmp_y+3
  1364  000B9E  0E00               	movlw	low _s_data
  1365  000BA0  6E70               	movwf	??_readSensors_old& (0+255),c
  1366  000BA2  0E01               	movlw	high _s_data
  1367  000BA4  6E71               	movwf	(??_readSensors_old+1)& (0+255),c
  1368  000BA6  90D8               	bcf	status,0,c
  1369  000BA8  347A               	rlcf	readSensors_old@i_171,w,c
  1370  000BAA  6ED9               	movwf	fsr2l,c
  1371  000BAC  347B               	rlcf	readSensors_old@i_171+1,w,c
  1372  000BAE  6EDA               	movwf	fsr2h,c
  1373  000BB0  90D8               	bcf	status,0,c
  1374  000BB2  36D9               	rlcf	fsr2l,f,c
  1375  000BB4  36DA               	rlcf	fsr2h,f,c
  1376  000BB6  5070               	movf	??_readSensors_old,w,c
  1377  000BB8  26D9               	addwf	fsr2l,f,c
  1378  000BBA  5071               	movf	??_readSensors_old+1,w,c
  1379  000BBC  22DA               	addwfc	fsr2h,f,c
  1380  000BBE  CFDE F001          	movff	postinc2,___flmul@b
  1381  000BC2  CFDE F002          	movff	postinc2,___flmul@b+1
  1382  000BC6  CFDE F003          	movff	postinc2,___flmul@b+2
  1383  000BCA  CFDE F004          	movff	postinc2,___flmul@b+3
  1384  000BCE  C07A  F072         	movff	readSensors_old@i_171,??_readSensors_old+2
  1385  000BD2  C07B  F073         	movff	readSensors_old@i_171+1,??_readSensors_old+3
  1386  000BD6  90D8               	bcf	status,0,c
  1387  000BD8  3672               	rlcf	??_readSensors_old+2,f,c
  1388  000BDA  3673               	rlcf	??_readSensors_old+3,f,c
  1389  000BDC  90D8               	bcf	status,0,c
  1390  000BDE  3672               	rlcf	??_readSensors_old+2,f,c
  1391  000BE0  3673               	rlcf	??_readSensors_old+3,f,c
  1392  000BE2  0E01               	movlw	low _cosins
  1393  000BE4  2472               	addwf	??_readSensors_old+2,w,c
  1394  000BE6  6EF6               	movwf	tblptrl,c
  1395  000BE8  0E06               	movlw	high _cosins
  1396  000BEA  2073               	addwfc	??_readSensors_old+3,w,c
  1397  000BEC  6EF7               	movwf	tblptrh,c
  1398  000BEE                     	if	0	;There are less than 3 active tblptr bytes
  1399  000BEE                     	endif
  1400  000BEE  0009               	tblrd		*+
  1401  000BF0  CFF5 F005          	movff	tablat,___flmul@a
  1402  000BF4  0009               	tblrd		*+
  1403  000BF6  CFF5 F006          	movff	tablat,___flmul@a+1
  1404  000BFA  0009               	tblrd		*+
  1405  000BFC  CFF5 F007          	movff	tablat,___flmul@a+2
  1406  000C00  000A               	tblrd		*-
  1407  000C02  CFF5 F008          	movff	tablat,___flmul@a+3
  1408  000C06  EC0D  F010         	call	___flmul	;wreg free
  1409  000C0A  C001  F0EE         	movff	?___flmul,_tmp_x
  1410  000C0E  C002  F0EF         	movff	?___flmul+1,_tmp_x+1
  1411  000C12  C003  F0F0         	movff	?___flmul+2,_tmp_x+2
  1412  000C16  C004  F0F1         	movff	?___flmul+3,_tmp_x+3
  1413  000C1A  C0D2  F01F         	movff	_vect,___fladd@b
  1414  000C1E  C0D3  F020         	movff	_vect+1,___fladd@b+1
  1415  000C22  C0D4  F021         	movff	_vect+2,___fladd@b+2
  1416  000C26  C0D5  F022         	movff	_vect+3,___fladd@b+3
  1417  000C2A  C0F2  F023         	movff	_tmp_y,___fladd@a
  1418  000C2E  C0F3  F024         	movff	_tmp_y+1,___fladd@a+1
  1419  000C32  C0F4  F025         	movff	_tmp_y+2,___fladd@a+2
  1420  000C36  C0F5  F026         	movff	_tmp_y+3,___fladd@a+3
  1421  000C3A  ECB6  F011         	call	___fladd	;wreg free
  1422  000C3E  C01F  F0D2         	movff	?___fladd,_vect
  1423  000C42  C020  F0D3         	movff	?___fladd+1,_vect+1
  1424  000C46  C021  F0D4         	movff	?___fladd+2,_vect+2
  1425  000C4A  C022  F0D5         	movff	?___fladd+3,_vect+3
  1426  000C4E  C0D6  F01F         	movff	_vect+4,___fladd@b
  1427  000C52  C0D7  F020         	movff	_vect+5,___fladd@b+1
  1428  000C56  C0D8  F021         	movff	_vect+6,___fladd@b+2
  1429  000C5A  C0D9  F022         	movff	_vect+7,___fladd@b+3
  1430  000C5E  C0EE  F023         	movff	_tmp_x,___fladd@a
  1431  000C62  C0EF  F024         	movff	_tmp_x+1,___fladd@a+1
  1432  000C66  C0F0  F025         	movff	_tmp_x+2,___fladd@a+2
  1433  000C6A  C0F1  F026         	movff	_tmp_x+3,___fladd@a+3
  1434  000C6E  ECB6  F011         	call	___fladd	;wreg free
  1435  000C72  C01F  F0D6         	movff	?___fladd,_vect+4
  1436  000C76  C020  F0D7         	movff	?___fladd+1,_vect+5
  1437  000C7A  C021  F0D8         	movff	?___fladd+2,_vect+6
  1438  000C7E  C022  F0D9         	movff	?___fladd+3,_vect+7
  1439  000C82  0E00               	movlw	low _s_data
  1440  000C84  6E70               	movwf	??_readSensors_old& (0+255),c
  1441  000C86  0E01               	movlw	high _s_data
  1442  000C88  6E71               	movwf	(??_readSensors_old+1)& (0+255),c
  1443  000C8A  90D8               	bcf	status,0,c
  1444  000C8C  347A               	rlcf	readSensors_old@i_171,w,c
  1445  000C8E  6ED9               	movwf	fsr2l,c
  1446  000C90  347B               	rlcf	readSensors_old@i_171+1,w,c
  1447  000C92  6EDA               	movwf	fsr2h,c
  1448  000C94  90D8               	bcf	status,0,c
  1449  000C96  36D9               	rlcf	fsr2l,f,c
  1450  000C98  36DA               	rlcf	fsr2h,f,c
  1451  000C9A  5070               	movf	??_readSensors_old,w,c
  1452  000C9C  26D9               	addwf	fsr2l,f,c
  1453  000C9E  5071               	movf	??_readSensors_old+1,w,c
  1454  000CA0  22DA               	addwfc	fsr2h,f,c
  1455  000CA2  0E00               	movlw	0
  1456  000CA4  6EDE               	movwf	postinc2,c
  1457  000CA6  0E00               	movlw	0
  1458  000CA8  6EDE               	movwf	postinc2,c
  1459  000CAA  0E00               	movlw	0
  1460  000CAC  6EDE               	movwf	postinc2,c
  1461  000CAE  0E00               	movlw	0
  1462  000CB0  6EDD               	movwf	postdec2,c
  1463  000CB2  4A7A               	infsnz	readSensors_old@i_171,f,c
  1464  000CB4  2A7B               	incf	readSensors_old@i_171+1,f,c
  1465  000CB6  BE7B               	btfsc	readSensors_old@i_171+1,7,c
  1466  000CB8  D6D4               	goto	l3740
  1467  000CBA  507B               	movf	readSensors_old@i_171+1,w,c
  1468  000CBC  E104               	bnz	u4100
  1469  000CBE  0E0C               	movlw	12
  1470  000CC0  5C7A               	subwf	readSensors_old@i_171,w,c
  1471  000CC2  A0D8               	btfss	status,0,c
  1472  000CC4  D6CE               	goto	l3740
  1473  000CC6                     u4100:
  1474  000CC6  C0D2  F058         	movff	_vect,atan2f@y
  1475  000CCA  C0D3  F059         	movff	_vect+1,atan2f@y+1
  1476  000CCE  C0D4  F05A         	movff	_vect+2,atan2f@y+2
  1477  000CD2  C0D5  F05B         	movff	_vect+3,atan2f@y+3
  1478  000CD6  C0D6  F05C         	movff	_vect+4,atan2f@x
  1479  000CDA  C0D7  F05D         	movff	_vect+5,atan2f@x+1
  1480  000CDE  C0D8  F05E         	movff	_vect+6,atan2f@x+2
  1481  000CE2  C0D9  F05F         	movff	_vect+7,atan2f@x+3
  1482  000CE6  EC0B  F00B         	call	_atan2f	;wreg free
  1483  000CEA  C058  F0E6         	movff	?_atan2f,_angle
  1484  000CEE  C059  F0E7         	movff	?_atan2f+1,_angle+1
  1485  000CF2  C05A  F0E8         	movff	?_atan2f+2,_angle+2
  1486  000CF6  C05B  F0E9         	movff	?_atan2f+3,_angle+3
  1487  000CFA  0E00               	movlw	0
  1488  000CFC  6E05               	movwf	___flmul@a,c
  1489  000CFE  0E40               	movlw	64
  1490  000D00  6E06               	movwf	___flmul@a+1,c
  1491  000D02  0E7E               	movlw	126
  1492  000D04  6E07               	movwf	___flmul@a+2,c
  1493  000D06  0E45               	movlw	69
  1494  000D08  6E08               	movwf	___flmul@a+3,c
  1495  000D0A  C0E6  F001         	movff	_angle,___flmul@b
  1496  000D0E  C0E7  F002         	movff	_angle+1,___flmul@b+1
  1497  000D12  C0E8  F003         	movff	_angle+2,___flmul@b+2
  1498  000D16  C0E9  F004         	movff	_angle+3,___flmul@b+3
  1499  000D1A  EC0D  F010         	call	___flmul	;wreg free
  1500  000D1E  C001  F02F         	movff	?___flmul,___fldiv@b
  1501  000D22  C002  F030         	movff	?___flmul+1,___fldiv@b+1
  1502  000D26  C003  F031         	movff	?___flmul+2,___fldiv@b+2
  1503  000D2A  C004  F032         	movff	?___flmul+3,___fldiv@b+3
  1504  000D2E  0E00               	movlw	0
  1505  000D30  6E33               	movwf	___fldiv@a,c
  1506  000D32  0E00               	movlw	0
  1507  000D34  6E34               	movwf	___fldiv@a+1,c
  1508  000D36  0E8E               	movlw	142
  1509  000D38  6E35               	movwf	___fldiv@a+2,c
  1510  000D3A  0E42               	movlw	66
  1511  000D3C  6E36               	movwf	___fldiv@a+3,c
  1512  000D3E  EC3C  F013         	call	___fldiv	;wreg free
  1513  000D42  C02F  F0E6         	movff	?___fldiv,_angle
  1514  000D46  C030  F0E7         	movff	?___fldiv+1,_angle+1
  1515  000D4A  C031  F0E8         	movff	?___fldiv+2,_angle+2
  1516  000D4E  C032  F0E9         	movff	?___fldiv+3,_angle+3
  1517  000D52  C0D2  F005         	movff	_vect,___flmul@a
  1518  000D56  C0D3  F006         	movff	_vect+1,___flmul@a+1
  1519  000D5A  C0D4  F007         	movff	_vect+2,___flmul@a+2
  1520  000D5E  C0D5  F008         	movff	_vect+3,___flmul@a+3
  1521  000D62  C0D2  F001         	movff	_vect,___flmul@b
  1522  000D66  C0D3  F002         	movff	_vect+1,___flmul@b+1
  1523  000D6A  C0D4  F003         	movff	_vect+2,___flmul@b+2
  1524  000D6E  C0D5  F004         	movff	_vect+3,___flmul@b+3
  1525  000D72  EC0D  F010         	call	___flmul	;wreg free
  1526  000D76  C001  F01F         	movff	?___flmul,___fladd@b
  1527  000D7A  C002  F020         	movff	?___flmul+1,___fladd@b+1
  1528  000D7E  C003  F021         	movff	?___flmul+2,___fladd@b+2
  1529  000D82  C004  F022         	movff	?___flmul+3,___fladd@b+3
  1530  000D86  C0D6  F005         	movff	_vect+4,___flmul@a
  1531  000D8A  C0D7  F006         	movff	_vect+5,___flmul@a+1
  1532  000D8E  C0D8  F007         	movff	_vect+6,___flmul@a+2
  1533  000D92  C0D9  F008         	movff	_vect+7,___flmul@a+3
  1534  000D96  C0D6  F001         	movff	_vect+4,___flmul@b
  1535  000D9A  C0D7  F002         	movff	_vect+5,___flmul@b+1
  1536  000D9E  C0D8  F003         	movff	_vect+6,___flmul@b+2
  1537  000DA2  C0D9  F004         	movff	_vect+7,___flmul@b+3
  1538  000DA6  EC0D  F010         	call	___flmul	;wreg free
  1539  000DAA  C001  F023         	movff	?___flmul,___fladd@a
  1540  000DAE  C002  F024         	movff	?___flmul+1,___fladd@a+1
  1541  000DB2  C003  F025         	movff	?___flmul+2,___fladd@a+2
  1542  000DB6  C004  F026         	movff	?___flmul+3,___fladd@a+3
  1543  000DBA  ECB6  F011         	call	___fladd	;wreg free
  1544  000DBE  C01F  F074         	movff	?___fladd,_readSensors_old$1012
  1545  000DC2  C020  F075         	movff	?___fladd+1,_readSensors_old$1012+1
  1546  000DC6  C021  F076         	movff	?___fladd+2,_readSensors_old$1012+2
  1547  000DCA  C022  F077         	movff	?___fladd+3,_readSensors_old$1012+3
  1548  000DCE  C074  F02F         	movff	_readSensors_old$1012,sqrtf@x
  1549  000DD2  C075  F030         	movff	_readSensors_old$1012+1,sqrtf@x+1
  1550  000DD6  C076  F031         	movff	_readSensors_old$1012+2,sqrtf@x+2
  1551  000DDA  C077  F032         	movff	_readSensors_old$1012+3,sqrtf@x+3
  1552  000DDE  ECFA  F00D         	call	_sqrtf	;wreg free
  1553  000DE2  C02F  F0EA         	movff	?_sqrtf,_dist
  1554  000DE6  C030  F0EB         	movff	?_sqrtf+1,_dist+1
  1555  000DEA  C031  F0EC         	movff	?_sqrtf+2,_dist+2
  1556  000DEE  C032  F0ED         	movff	?_sqrtf+3,_dist+3
  1557  000DF2  0E01               	movlw	1
  1558  000DF4  6E0E               	movwf	___awmod@divisor+1,c
  1559  000DF6  0E68               	movlw	104
  1560  000DF8  6E0D               	movwf	___awmod@divisor,c
  1561  000DFA  C0E6  F001         	movff	_angle,___fltol@f1
  1562  000DFE  C0E7  F002         	movff	_angle+1,___fltol@f1+1
  1563  000E02  C0E8  F003         	movff	_angle+2,___fltol@f1+2
  1564  000E06  C0E9  F004         	movff	_angle+3,___fltol@f1+3
  1565  000E0A  EC3E  F017         	call	___fltol	;wreg free
  1566  000E0E  0E68               	movlw	104
  1567  000E10  2401               	addwf	?___fltol,w,c
  1568  000E12  6E0B               	movwf	___awmod@dividend,c
  1569  000E14  0E01               	movlw	1
  1570  000E16  2002               	addwfc	?___fltol+1,w,c
  1571  000E18  6E0C               	movwf	___awmod@dividend+1,c
  1572  000E1A  EC9B  F017         	call	___awmod	;wreg free
  1573  000E1E  C00B  F011         	movff	?___awmod,___xxtofl@val
  1574  000E22  C00C  F012         	movff	?___awmod+1,___xxtofl@val+1
  1575  000E26  0E00               	movlw	0
  1576  000E28  BE12               	btfsc	___xxtofl@val+1,7,c
  1577  000E2A  0EFF               	movlw	-1
  1578  000E2C  6E13               	movwf	___xxtofl@val+2,c
  1579  000E2E  6E14               	movwf	___xxtofl@val+3,c
  1580  000E30  0E01               	movlw	1
  1581  000E32  EC80  F014         	call	___xxtofl
  1582  000E36  C011  F0E6         	movff	?___xxtofl,_angle
  1583  000E3A  C012  F0E7         	movff	?___xxtofl+1,_angle+1
  1584  000E3E  C013  F0E8         	movff	?___xxtofl+2,_angle+2
  1585  000E42  C014  F0E9         	movff	?___xxtofl+3,_angle+3
  1586  000E46  C0E6  F02F         	movff	_angle,___fldiv@b
  1587  000E4A  C0E7  F030         	movff	_angle+1,___fldiv@b+1
  1588  000E4E  C0E8  F031         	movff	_angle+2,___fldiv@b+2
  1589  000E52  C0E9  F032         	movff	_angle+3,___fldiv@b+3
  1590  000E56  0E00               	movlw	0
  1591  000E58  6E33               	movwf	___fldiv@a,c
  1592  000E5A  0E00               	movlw	0
  1593  000E5C  6E34               	movwf	___fldiv@a+1,c
  1594  000E5E  0E00               	movlw	0
  1595  000E60  6E35               	movwf	___fldiv@a+2,c
  1596  000E62  0E40               	movlw	64
  1597  000E64  6E36               	movwf	___fldiv@a+3,c
  1598  000E66  EC3C  F013         	call	___fldiv	;wreg free
  1599  000E6A  C02F  F0E2         	movff	?___fldiv,_angle2
  1600  000E6E  C030  F0E3         	movff	?___fldiv+1,_angle2+1
  1601  000E72  C031  F0E4         	movff	?___fldiv+2,_angle2+2
  1602  000E76  C032  F0E5         	movff	?___fldiv+3,_angle2+3
  1603  000E7A  0E00               	movlw	0
  1604  000E7C  0100               	movlb	0	; () banked
  1605  000E7E  6FD2               	movwf	_vect& (0+255),b
  1606  000E80  0E00               	movlw	0
  1607  000E82  6FD3               	movwf	(_vect+1)& (0+255),b
  1608  000E84  0E00               	movlw	0
  1609  000E86  6FD4               	movwf	(_vect+2)& (0+255),b
  1610  000E88  0E00               	movlw	0
  1611  000E8A  6FD5               	movwf	(_vect+3)& (0+255),b
  1612                           
  1613                           ; BSR set to: 0
  1614  000E8C  0E00               	movlw	0
  1615  000E8E  6FD6               	movwf	(_vect+4)& (0+255),b
  1616  000E90  0E00               	movlw	0
  1617  000E92  6FD7               	movwf	(_vect+5)& (0+255),b
  1618  000E94  0E00               	movlw	0
  1619  000E96  6FD8               	movwf	(_vect+6)& (0+255),b
  1620  000E98  0E00               	movlw	0
  1621  000E9A  6FD9               	movwf	(_vect+7)& (0+255),b
  1622                           
  1623                           ; BSR set to: 0
  1624  000E9C  0012               	return		;funcret
  1625  000E9E                     __end_of_readSensors_old:
  1626                           	opt callstack 0
  1627                           
  1628 ;; *************** function _sqrtf *****************
  1629 ;; Defined at:
  1630 ;;		line 24 in file "C:\Program Files (x86)\Microchip\xc8\v2.05\pic\sources\c99\common\sqrtf.c"
  1631 ;; Parameters:    Size  Location     Type
  1632 ;;  x               4   46[COMRAM] float 
  1633 ;; Auto vars:     Size  Location     Type
  1634 ;;  ix              4   91[COMRAM] long 
  1635 ;;  r               4   87[COMRAM] unsigned long 
  1636 ;;  m               4   83[COMRAM] long 
  1637 ;;  z               4   79[COMRAM] float 
  1638 ;;  t               4   75[COMRAM] long 
  1639 ;;  q               4   71[COMRAM] long 
  1640 ;;  __xc8_float_    4   67[COMRAM] struct .
  1641 ;;  i               4   63[COMRAM] long 
  1642 ;;  s               4   59[COMRAM] long 
  1643 ;;  sign            4    0        long 
  1644 ;; Return value:  Size  Location     Type
  1645 ;;                  4   46[COMRAM] float 
  1646 ;; Registers used:
  1647 ;;		wreg, status,2, status,0, prodl, prodh, cstack
  1648 ;; Tracked objects:
  1649 ;;		On entry : 0/0
  1650 ;;		On exit  : 0/0
  1651 ;;		Unchanged: 0/0
  1652 ;; Data sizes:     COMRAM   BANK0   BANK1   BANK2   BANK3   BANK4   BANK5
  1653 ;;      Params:         4       0       0       0       0       0       0
  1654 ;;      Locals:        40       0       0       0       0       0       0
  1655 ;;      Temps:          5       0       0       0       0       0       0
  1656 ;;      Totals:        49       0       0       0       0       0       0
  1657 ;;Total ram usage:       49 bytes
  1658 ;; Hardware stack levels used:    1
  1659 ;; Hardware stack levels required when called:    1
  1660 ;; This function calls:
  1661 ;;		___fladd
  1662 ;;		___flge
  1663 ;;		___flmul
  1664 ;;		_nanf
  1665 ;; This function is called by:
  1666 ;;		_readSensors_old
  1667 ;; This function uses a non-reentrant model
  1668 ;;
  1669                           
  1670                           	psect	text2
  1671  001BF4                     __ptext2:
  1672                           	opt callstack 0
  1673  001BF4                     _sqrtf:
  1674                           	opt callstack 28
  1675                           
  1676                           ; BSR set to: 0
  1677                           ;incstack = 0
  1678  001BF4  C02F  F044         	movff	sqrtf@x,sqrtf@__xc8_float_word
  1679  001BF8  C030  F045         	movff	sqrtf@x+1,sqrtf@__xc8_float_word+1
  1680  001BFC  C031  F046         	movff	sqrtf@x+2,sqrtf@__xc8_float_word+2
  1681  001C00  C032  F047         	movff	sqrtf@x+3,sqrtf@__xc8_float_word+3
  1682  001C04  C044  F05C         	movff	sqrtf@__xc8_float_word,sqrtf@ix
  1683  001C08  C045  F05D         	movff	sqrtf@__xc8_float_word+1,sqrtf@ix+1
  1684  001C0C  C046  F05E         	movff	sqrtf@__xc8_float_word+2,sqrtf@ix+2
  1685  001C10  C047  F05F         	movff	sqrtf@__xc8_float_word+3,sqrtf@ix+3
  1686  001C14  0E00               	movlw	0
  1687  001C16  145C               	andwf	sqrtf@ix,w,c
  1688  001C18  6E33               	movwf	??_sqrtf& (0+255),c
  1689  001C1A  0E00               	movlw	0
  1690  001C1C  145D               	andwf	sqrtf@ix+1,w,c
  1691  001C1E  6E34               	movwf	(??_sqrtf+1)& (0+255),c
  1692  001C20  0E80               	movlw	128
  1693  001C22  145E               	andwf	sqrtf@ix+2,w,c
  1694  001C24  6E35               	movwf	(??_sqrtf+2)& (0+255),c
  1695  001C26  0E7F               	movlw	127
  1696  001C28  145F               	andwf	sqrtf@ix+3,w,c
  1697  001C2A  6E36               	movwf	(??_sqrtf+3)& (0+255),c
  1698  001C2C  0E80               	movlw	128
  1699  001C2E  1835               	xorwf	??_sqrtf+2,w,c
  1700  001C30  E133               	bnz	l3474
  1701  001C32  0E7F               	movlw	127
  1702  001C34  1836               	xorwf	??_sqrtf+3,w,c
  1703  001C36  1033               	iorwf	??_sqrtf,w,c
  1704  001C38  1034               	iorwf	??_sqrtf+1,w,c
  1705  001C3A  A4D8               	btfss	status,2,c
  1706  001C3C  D02D               	goto	l3474
  1707  001C3E  C02F  F005         	movff	sqrtf@x,___flmul@a
  1708  001C42  C030  F006         	movff	sqrtf@x+1,___flmul@a+1
  1709  001C46  C031  F007         	movff	sqrtf@x+2,___flmul@a+2
  1710  001C4A  C032  F008         	movff	sqrtf@x+3,___flmul@a+3
  1711  001C4E  C02F  F001         	movff	sqrtf@x,___flmul@b
  1712  001C52  C030  F002         	movff	sqrtf@x+1,___flmul@b+1
  1713  001C56  C031  F003         	movff	sqrtf@x+2,___flmul@b+2
  1714  001C5A  C032  F004         	movff	sqrtf@x+3,___flmul@b+3
  1715  001C5E  EC0D  F010         	call	___flmul	;wreg free
  1716  001C62  C001  F01F         	movff	?___flmul,___fladd@b
  1717  001C66  C002  F020         	movff	?___flmul+1,___fladd@b+1
  1718  001C6A  C003  F021         	movff	?___flmul+2,___fladd@b+2
  1719  001C6E  C004  F022         	movff	?___flmul+3,___fladd@b+3
  1720  001C72  C02F  F023         	movff	sqrtf@x,___fladd@a
  1721  001C76  C030  F024         	movff	sqrtf@x+1,___fladd@a+1
  1722  001C7A  C031  F025         	movff	sqrtf@x+2,___fladd@a+2
  1723  001C7E  C032  F026         	movff	sqrtf@x+3,___fladd@a+3
  1724  001C82  ECB6  F011         	call	___fladd	;wreg free
  1725  001C86  C01F  F02F         	movff	?___fladd,?_sqrtf
  1726  001C8A  C020  F030         	movff	?___fladd+1,?_sqrtf+1
  1727  001C8E  C021  F031         	movff	?___fladd+2,?_sqrtf+2
  1728  001C92  C022  F032         	movff	?___fladd+3,?_sqrtf+3
  1729  001C96  0012               	return	
  1730  001C98                     l3474:
  1731  001C98  BE5F               	btfsc	sqrtf@ix+3,7,c
  1732  001C9A  D007               	goto	u3350
  1733  001C9C  505F               	movf	sqrtf@ix+3,w,c
  1734  001C9E  105E               	iorwf	sqrtf@ix+2,w,c
  1735  001CA0  105D               	iorwf	sqrtf@ix+1,w,c
  1736  001CA2  E134               	bnz	l3488
  1737  001CA4  045C               	decf	sqrtf@ix,w,c
  1738  001CA6  B0D8               	btfsc	status,0,c
  1739  001CA8  D031               	goto	l3488
  1740  001CAA                     u3350:
  1741  001CAA  0EFF               	movlw	255
  1742  001CAC  145C               	andwf	sqrtf@ix,w,c
  1743  001CAE  6E33               	movwf	??_sqrtf& (0+255),c
  1744  001CB0  0EFF               	movlw	255
  1745  001CB2  145D               	andwf	sqrtf@ix+1,w,c
  1746  001CB4  6E34               	movwf	(??_sqrtf+1)& (0+255),c
  1747  001CB6  0EFF               	movlw	255
  1748  001CB8  145E               	andwf	sqrtf@ix+2,w,c
  1749  001CBA  6E35               	movwf	(??_sqrtf+2)& (0+255),c
  1750  001CBC  0E7F               	movlw	127
  1751  001CBE  145F               	andwf	sqrtf@ix+3,w,c
  1752  001CC0  6E36               	movwf	(??_sqrtf+3)& (0+255),c
  1753  001CC2  5033               	movf	??_sqrtf,w,c
  1754  001CC4  1034               	iorwf	??_sqrtf+1,w,c
  1755  001CC6  1035               	iorwf	??_sqrtf+2,w,c
  1756  001CC8  1036               	iorwf	??_sqrtf+3,w,c
  1757  001CCA  A4D8               	btfss	status,2,c
  1758  001CCC  D009               	goto	l3480
  1759  001CCE  C02F  F02F         	movff	sqrtf@x,?_sqrtf
  1760  001CD2  C030  F030         	movff	sqrtf@x+1,?_sqrtf+1
  1761  001CD6  C031  F031         	movff	sqrtf@x+2,?_sqrtf+2
  1762  001CDA  C032  F032         	movff	sqrtf@x+3,?_sqrtf+3
  1763  001CDE  0012               	return	
  1764  001CE0                     l3480:
  1765  001CE0  AE5F               	btfss	sqrtf@ix+3,7,c
  1766  001CE2  D014               	goto	l3488
  1767  001CE4  0E00               	movlw	0
  1768  001CE6  0100               	movlb	0	; () banked
  1769  001CE8  6FF7               	movwf	(_errno+1)& (0+255),b
  1770  001CEA  0E21               	movlw	33
  1771  001CEC  6FF6               	movwf	_errno& (0+255),b
  1772                           
  1773                           ; BSR set to: 0
  1774  001CEE  0EA1               	movlw	low STR_1
  1775  001CF0  6E01               	movwf	nanf@s,c
  1776  001CF2  0E06               	movlw	high STR_1
  1777  001CF4  6E02               	movwf	nanf@s+1,c
  1778  001CF6  ECC7  F018         	call	_nanf	;wreg free
  1779  001CFA  C001  F02F         	movff	?_nanf,?_sqrtf
  1780  001CFE  C002  F030         	movff	?_nanf+1,?_sqrtf+1
  1781  001D02  C003  F031         	movff	?_nanf+2,?_sqrtf+2
  1782  001D06  C004  F032         	movff	?_nanf+3,?_sqrtf+3
  1783  001D0A  0012               	return	
  1784  001D0C                     l3488:
  1785  001D0C  0E17               	movlw	23
  1786  001D0E  6E33               	movwf	??_sqrtf& (0+255),c
  1787  001D10  C05C  F034         	movff	sqrtf@ix,??_sqrtf+1
  1788  001D14  C05D  F035         	movff	sqrtf@ix+1,??_sqrtf+2
  1789  001D18  C05E  F036         	movff	sqrtf@ix+2,??_sqrtf+3
  1790  001D1C  C05F  F037         	movff	sqrtf@ix+3,??_sqrtf+4
  1791  001D20                     u3385:
  1792  001D20  6633               	tstfsz	??_sqrtf,c
  1793  001D22  D001               	goto	u3386
  1794  001D24  D007               	goto	u3387
  1795  001D26                     u3386:
  1796  001D26  3437               	rlcf	??_sqrtf+4,w,c
  1797  001D28  3237               	rrcf	??_sqrtf+4,f,c
  1798  001D2A  3236               	rrcf	??_sqrtf+3,f,c
  1799  001D2C  3235               	rrcf	??_sqrtf+2,f,c
  1800  001D2E  3234               	rrcf	??_sqrtf+1,f,c
  1801  001D30  2E33               	decfsz	??_sqrtf,f,c
  1802  001D32  D7F6               	goto	u3385
  1803  001D34                     u3387:
  1804  001D34  C034  F054         	movff	??_sqrtf+1,sqrtf@m
  1805  001D38  C035  F055         	movff	??_sqrtf+2,sqrtf@m+1
  1806  001D3C  C036  F056         	movff	??_sqrtf+3,sqrtf@m+2
  1807  001D40  C037  F057         	movff	??_sqrtf+4,sqrtf@m+3
  1808  001D44  5054               	movf	sqrtf@m,w,c
  1809  001D46  1055               	iorwf	sqrtf@m+1,w,c
  1810  001D48  1056               	iorwf	sqrtf@m+2,w,c
  1811  001D4A  1057               	iorwf	sqrtf@m+3,w,c
  1812  001D4C  A4D8               	btfss	status,2,c
  1813  001D4E  D02A               	goto	l956
  1814  001D50  0E00               	movlw	0
  1815  001D52  6E40               	movwf	sqrtf@i,c
  1816  001D54  0E00               	movlw	0
  1817  001D56  6E41               	movwf	sqrtf@i+1,c
  1818  001D58  0E00               	movlw	0
  1819  001D5A  6E42               	movwf	sqrtf@i+2,c
  1820  001D5C  0E00               	movlw	0
  1821  001D5E  6E43               	movwf	sqrtf@i+3,c
  1822  001D60  D00B               	goto	l3496
  1823  001D62                     l3492:
  1824  001D62  90D8               	bcf	status,0,c
  1825  001D64  365C               	rlcf	sqrtf@ix,f,c
  1826  001D66  365D               	rlcf	sqrtf@ix+1,f,c
  1827  001D68  365E               	rlcf	sqrtf@ix+2,f,c
  1828  001D6A  365F               	rlcf	sqrtf@ix+3,f,c
  1829  001D6C  0E01               	movlw	1
  1830  001D6E  2640               	addwf	sqrtf@i,f,c
  1831  001D70  0E00               	movlw	0
  1832  001D72  2241               	addwfc	sqrtf@i+1,f,c
  1833  001D74  2242               	addwfc	sqrtf@i+2,f,c
  1834  001D76  2243               	addwfc	sqrtf@i+3,f,c
  1835  001D78                     l3496:
  1836  001D78  AE5E               	btfss	sqrtf@ix+2,7,c
  1837  001D7A  D7F3               	goto	l3492
  1838  001D7C  0EFF               	movlw	255
  1839  001D7E  2440               	addwf	sqrtf@i,w,c
  1840  001D80  6E33               	movwf	??_sqrtf& (0+255),c
  1841  001D82  0EFF               	movlw	255
  1842  001D84  2041               	addwfc	sqrtf@i+1,w,c
  1843  001D86  6E34               	movwf	(??_sqrtf+1)& (0+255),c
  1844  001D88  0EFF               	movlw	255
  1845  001D8A  2042               	addwfc	sqrtf@i+2,w,c
  1846  001D8C  6E35               	movwf	(??_sqrtf+2)& (0+255),c
  1847  001D8E  0EFF               	movlw	255
  1848  001D90  2043               	addwfc	sqrtf@i+3,w,c
  1849  001D92  6E36               	movwf	(??_sqrtf+3)& (0+255),c
  1850  001D94  5033               	movf	??_sqrtf,w,c
  1851  001D96  5E54               	subwf	sqrtf@m,f,c
  1852  001D98  5034               	movf	??_sqrtf+1,w,c
  1853  001D9A  5A55               	subwfb	sqrtf@m+1,f,c
  1854  001D9C  5035               	movf	??_sqrtf+2,w,c
  1855  001D9E  5A56               	subwfb	sqrtf@m+2,f,c
  1856  001DA0  5036               	movf	??_sqrtf+3,w,c
  1857  001DA2  5A57               	subwfb	sqrtf@m+3,f,c
  1858  001DA4                     l956:
  1859  001DA4  0E81               	movlw	129
  1860  001DA6  2654               	addwf	sqrtf@m,f,c
  1861  001DA8  0EFF               	movlw	255
  1862  001DAA  2255               	addwfc	sqrtf@m+1,f,c
  1863  001DAC  0EFF               	movlw	255
  1864  001DAE  2256               	addwfc	sqrtf@m+2,f,c
  1865  001DB0  0EFF               	movlw	255
  1866  001DB2  2257               	addwfc	sqrtf@m+3,f,c
  1867  001DB4  0EFF               	movlw	255
  1868  001DB6  145C               	andwf	sqrtf@ix,w,c
  1869  001DB8  6E33               	movwf	??_sqrtf& (0+255),c
  1870  001DBA  0EFF               	movlw	255
  1871  001DBC  145D               	andwf	sqrtf@ix+1,w,c
  1872  001DBE  6E34               	movwf	(??_sqrtf+1)& (0+255),c
  1873  001DC0  0E7F               	movlw	127
  1874  001DC2  145E               	andwf	sqrtf@ix+2,w,c
  1875  001DC4  6E35               	movwf	(??_sqrtf+2)& (0+255),c
  1876  001DC6  0E00               	movlw	0
  1877  001DC8  145F               	andwf	sqrtf@ix+3,w,c
  1878  001DCA  6E36               	movwf	(??_sqrtf+3)& (0+255),c
  1879  001DCC  0E00               	movlw	0
  1880  001DCE  1033               	iorwf	??_sqrtf,w,c
  1881  001DD0  6E5C               	movwf	sqrtf@ix,c
  1882  001DD2  0E00               	movlw	0
  1883  001DD4  1034               	iorwf	??_sqrtf+1,w,c
  1884  001DD6  6E5D               	movwf	sqrtf@ix+1,c
  1885  001DD8  0E80               	movlw	128
  1886  001DDA  1035               	iorwf	??_sqrtf+2,w,c
  1887  001DDC  6E5E               	movwf	sqrtf@ix+2,c
  1888  001DDE  0E00               	movlw	0
  1889  001DE0  1036               	iorwf	??_sqrtf+3,w,c
  1890  001DE2  6E5F               	movwf	sqrtf@ix+3,c
  1891  001DE4  A054               	btfss	sqrtf@m,0,c
  1892  001DE6  D008               	goto	l960
  1893  001DE8  505C               	movf	sqrtf@ix,w,c
  1894  001DEA  265C               	addwf	sqrtf@ix,f,c
  1895  001DEC  505D               	movf	sqrtf@ix+1,w,c
  1896  001DEE  225D               	addwfc	sqrtf@ix+1,f,c
  1897  001DF0  505E               	movf	sqrtf@ix+2,w,c
  1898  001DF2  225E               	addwfc	sqrtf@ix+2,f,c
  1899  001DF4  505F               	movf	sqrtf@ix+3,w,c
  1900  001DF6  225F               	addwfc	sqrtf@ix+3,f,c
  1901  001DF8                     l960:
  1902  001DF8  3457               	rlcf	sqrtf@m+3,w,c
  1903  001DFA  3257               	rrcf	sqrtf@m+3,f,c
  1904  001DFC  3256               	rrcf	sqrtf@m+2,f,c
  1905  001DFE  3255               	rrcf	sqrtf@m+1,f,c
  1906  001E00  3254               	rrcf	sqrtf@m,f,c
  1907  001E02  505C               	movf	sqrtf@ix,w,c
  1908  001E04  265C               	addwf	sqrtf@ix,f,c
  1909  001E06  505D               	movf	sqrtf@ix+1,w,c
  1910  001E08  225D               	addwfc	sqrtf@ix+1,f,c
  1911  001E0A  505E               	movf	sqrtf@ix+2,w,c
  1912  001E0C  225E               	addwfc	sqrtf@ix+2,f,c
  1913  001E0E  505F               	movf	sqrtf@ix+3,w,c
  1914  001E10  225F               	addwfc	sqrtf@ix+3,f,c
  1915  001E12  0E00               	movlw	0
  1916  001E14  6E3C               	movwf	sqrtf@s,c
  1917  001E16  0E00               	movlw	0
  1918  001E18  6E3D               	movwf	sqrtf@s+1,c
  1919  001E1A  0E00               	movlw	0
  1920  001E1C  6E3E               	movwf	sqrtf@s+2,c
  1921  001E1E  0E00               	movlw	0
  1922  001E20  6E3F               	movwf	sqrtf@s+3,c
  1923  001E22  C03C  F048         	movff	sqrtf@s,sqrtf@q
  1924  001E26  C03D  F049         	movff	sqrtf@s+1,sqrtf@q+1
  1925  001E2A  C03E  F04A         	movff	sqrtf@s+2,sqrtf@q+2
  1926  001E2E  C03F  F04B         	movff	sqrtf@s+3,sqrtf@q+3
  1927  001E32  0E00               	movlw	0
  1928  001E34  6E58               	movwf	sqrtf@r,c
  1929  001E36  0E00               	movlw	0
  1930  001E38  6E59               	movwf	sqrtf@r+1,c
  1931  001E3A  0E00               	movlw	0
  1932  001E3C  6E5A               	movwf	sqrtf@r+2,c
  1933  001E3E  0E01               	movlw	1
  1934  001E40  6E5B               	movwf	sqrtf@r+3,c
  1935  001E42  D043               	goto	l3514
  1936  001E44                     l3508:
  1937  001E44  5058               	movf	sqrtf@r,w,c
  1938  001E46  243C               	addwf	sqrtf@s,w,c
  1939  001E48  6E4C               	movwf	sqrtf@t,c
  1940  001E4A  5059               	movf	sqrtf@r+1,w,c
  1941  001E4C  203D               	addwfc	sqrtf@s+1,w,c
  1942  001E4E  6E4D               	movwf	sqrtf@t+1,c
  1943  001E50  505A               	movf	sqrtf@r+2,w,c
  1944  001E52  203E               	addwfc	sqrtf@s+2,w,c
  1945  001E54  6E4E               	movwf	sqrtf@t+2,c
  1946  001E56  505B               	movf	sqrtf@r+3,w,c
  1947  001E58  203F               	addwfc	sqrtf@s+3,w,c
  1948  001E5A  6E4F               	movwf	sqrtf@t+3,c
  1949  001E5C  504C               	movf	sqrtf@t,w,c
  1950  001E5E  5C5C               	subwf	sqrtf@ix,w,c
  1951  001E60  504D               	movf	sqrtf@t+1,w,c
  1952  001E62  585D               	subwfb	sqrtf@ix+1,w,c
  1953  001E64  504E               	movf	sqrtf@t+2,w,c
  1954  001E66  585E               	subwfb	sqrtf@ix+2,w,c
  1955  001E68  505F               	movf	sqrtf@ix+3,w,c
  1956  001E6A  0A80               	xorlw	128
  1957  001E6C  6E33               	movwf	??_sqrtf& (0+255),c
  1958  001E6E  504F               	movf	sqrtf@t+3,w,c
  1959  001E70  0A80               	xorlw	128
  1960  001E72  5833               	subwfb	??_sqrtf& (0+255),w,c
  1961  001E74  A0D8               	btfss	status,0,c
  1962  001E76  D01C               	goto	l963
  1963  001E78  5058               	movf	sqrtf@r,w,c
  1964  001E7A  244C               	addwf	sqrtf@t,w,c
  1965  001E7C  6E3C               	movwf	sqrtf@s,c
  1966  001E7E  5059               	movf	sqrtf@r+1,w,c
  1967  001E80  204D               	addwfc	sqrtf@t+1,w,c
  1968  001E82  6E3D               	movwf	sqrtf@s+1,c
  1969  001E84  505A               	movf	sqrtf@r+2,w,c
  1970  001E86  204E               	addwfc	sqrtf@t+2,w,c
  1971  001E88  6E3E               	movwf	sqrtf@s+2,c
  1972  001E8A  505B               	movf	sqrtf@r+3,w,c
  1973  001E8C  204F               	addwfc	sqrtf@t+3,w,c
  1974  001E8E  6E3F               	movwf	sqrtf@s+3,c
  1975  001E90  504C               	movf	sqrtf@t,w,c
  1976  001E92  5E5C               	subwf	sqrtf@ix,f,c
  1977  001E94  504D               	movf	sqrtf@t+1,w,c
  1978  001E96  5A5D               	subwfb	sqrtf@ix+1,f,c
  1979  001E98  504E               	movf	sqrtf@t+2,w,c
  1980  001E9A  5A5E               	subwfb	sqrtf@ix+2,f,c
  1981  001E9C  504F               	movf	sqrtf@t+3,w,c
  1982  001E9E  5A5F               	subwfb	sqrtf@ix+3,f,c
  1983  001EA0  5058               	movf	sqrtf@r,w,c
  1984  001EA2  2648               	addwf	sqrtf@q,f,c
  1985  001EA4  5059               	movf	sqrtf@r+1,w,c
  1986  001EA6  2249               	addwfc	sqrtf@q+1,f,c
  1987  001EA8  505A               	movf	sqrtf@r+2,w,c
  1988  001EAA  224A               	addwfc	sqrtf@q+2,f,c
  1989  001EAC  505B               	movf	sqrtf@r+3,w,c
  1990  001EAE  224B               	addwfc	sqrtf@q+3,f,c
  1991  001EB0                     l963:
  1992  001EB0  505C               	movf	sqrtf@ix,w,c
  1993  001EB2  265C               	addwf	sqrtf@ix,f,c
  1994  001EB4  505D               	movf	sqrtf@ix+1,w,c
  1995  001EB6  225D               	addwfc	sqrtf@ix+1,f,c
  1996  001EB8  505E               	movf	sqrtf@ix+2,w,c
  1997  001EBA  225E               	addwfc	sqrtf@ix+2,f,c
  1998  001EBC  505F               	movf	sqrtf@ix+3,w,c
  1999  001EBE  225F               	addwfc	sqrtf@ix+3,f,c
  2000  001EC0  90D8               	bcf	status,0,c
  2001  001EC2  325B               	rrcf	sqrtf@r+3,f,c
  2002  001EC4  325A               	rrcf	sqrtf@r+2,f,c
  2003  001EC6  3259               	rrcf	sqrtf@r+1,f,c
  2004  001EC8  3258               	rrcf	sqrtf@r,f,c
  2005  001ECA                     l3514:
  2006  001ECA  5058               	movf	sqrtf@r,w,c
  2007  001ECC  1059               	iorwf	sqrtf@r+1,w,c
  2008  001ECE  105A               	iorwf	sqrtf@r+2,w,c
  2009  001ED0  105B               	iorwf	sqrtf@r+3,w,c
  2010  001ED2  A4D8               	btfss	status,2,c
  2011  001ED4  D7B7               	goto	l3508
  2012  001ED6  505C               	movf	sqrtf@ix,w,c
  2013  001ED8  105D               	iorwf	sqrtf@ix+1,w,c
  2014  001EDA  105E               	iorwf	sqrtf@ix+2,w,c
  2015  001EDC  105F               	iorwf	sqrtf@ix+3,w,c
  2016  001EDE  B4D8               	btfsc	status,2,c
  2017  001EE0  D052               	goto	l965
  2018  001EE2  0E00               	movlw	0
  2019  001EE4  6E50               	movwf	sqrtf@z,c
  2020  001EE6  0E00               	movlw	0
  2021  001EE8  6E51               	movwf	sqrtf@z+1,c
  2022  001EEA  0E80               	movlw	128
  2023  001EEC  6E52               	movwf	sqrtf@z+2,c
  2024  001EEE  0E3F               	movlw	63
  2025  001EF0  6E53               	movwf	sqrtf@z+3,c
  2026  001EF2  C050  F001         	movff	sqrtf@z,___flge@ff1
  2027  001EF6  C051  F002         	movff	sqrtf@z+1,___flge@ff1+1
  2028  001EFA  C052  F003         	movff	sqrtf@z+2,___flge@ff1+2
  2029  001EFE  C053  F004         	movff	sqrtf@z+3,___flge@ff1+3
  2030  001F02  0E00               	movlw	0
  2031  001F04  6E05               	movwf	___flge@ff2,c
  2032  001F06  0E00               	movlw	0
  2033  001F08  6E06               	movwf	___flge@ff2+1,c
  2034  001F0A  0E80               	movlw	128
  2035  001F0C  6E07               	movwf	___flge@ff2+2,c
  2036  001F0E  0E3F               	movlw	63
  2037  001F10  6E08               	movwf	___flge@ff2+3,c
  2038  001F12  ECA2  F015         	call	___flge	;wreg free
  2039  001F16  A0D8               	btfss	status,0,c
  2040  001F18  D036               	goto	l965
  2041  001F1A  0E00               	movlw	0
  2042  001F1C  6E50               	movwf	sqrtf@z,c
  2043  001F1E  0E00               	movlw	0
  2044  001F20  6E51               	movwf	sqrtf@z+1,c
  2045  001F22  0E80               	movlw	128
  2046  001F24  6E52               	movwf	sqrtf@z+2,c
  2047  001F26  0E3F               	movlw	63
  2048  001F28  6E53               	movwf	sqrtf@z+3,c
  2049  001F2A  0E00               	movlw	0
  2050  001F2C  6E01               	movwf	___flge@ff1,c
  2051  001F2E  0E00               	movlw	0
  2052  001F30  6E02               	movwf	___flge@ff1+1,c
  2053  001F32  0E80               	movlw	128
  2054  001F34  6E03               	movwf	___flge@ff1+2,c
  2055  001F36  0E3F               	movlw	63
  2056  001F38  6E04               	movwf	___flge@ff1+3,c
  2057  001F3A  C050  F005         	movff	sqrtf@z,___flge@ff2
  2058  001F3E  C051  F006         	movff	sqrtf@z+1,___flge@ff2+1
  2059  001F42  C052  F007         	movff	sqrtf@z+2,___flge@ff2+2
  2060  001F46  C053  F008         	movff	sqrtf@z+3,___flge@ff2+3
  2061  001F4A  ECA2  F015         	call	___flge	;wreg free
  2062  001F4E  B0D8               	btfsc	status,0,c
  2063  001F50  D006               	goto	l3528
  2064  001F52  0E02               	movlw	2
  2065  001F54  2648               	addwf	sqrtf@q,f,c
  2066  001F56  0E00               	movlw	0
  2067  001F58  2249               	addwfc	sqrtf@q+1,f,c
  2068  001F5A  224A               	addwfc	sqrtf@q+2,f,c
  2069  001F5C  D013               	goto	L1
  2070  001F5E                     l3528:
  2071  001F5E  0E01               	movlw	1
  2072  001F60  1448               	andwf	sqrtf@q,w,c
  2073  001F62  6E33               	movwf	??_sqrtf& (0+255),c
  2074  001F64  0E00               	movlw	0
  2075  001F66  1449               	andwf	sqrtf@q+1,w,c
  2076  001F68  6E34               	movwf	(??_sqrtf+1)& (0+255),c
  2077  001F6A  0E00               	movlw	0
  2078  001F6C  144A               	andwf	sqrtf@q+2,w,c
  2079  001F6E  6E35               	movwf	(??_sqrtf+2)& (0+255),c
  2080  001F70  0E00               	movlw	0
  2081  001F72  144B               	andwf	sqrtf@q+3,w,c
  2082  001F74  6E36               	movwf	(??_sqrtf+3)& (0+255),c
  2083  001F76  5033               	movf	??_sqrtf,w,c
  2084  001F78  2648               	addwf	sqrtf@q,f,c
  2085  001F7A  5034               	movf	??_sqrtf+1,w,c
  2086  001F7C  2249               	addwfc	sqrtf@q+1,f,c
  2087  001F7E  5035               	movf	??_sqrtf+2,w,c
  2088  001F80  224A               	addwfc	sqrtf@q+2,f,c
  2089  001F82  5036               	movf	??_sqrtf+3,w,c
  2090  001F84                     L1:
  2091  001F84  224B               	addwfc	sqrtf@q+3,f,c
  2092  001F86                     l965:
  2093  001F86  C048  F033         	movff	sqrtf@q,??_sqrtf
  2094  001F8A  C049  F034         	movff	sqrtf@q+1,??_sqrtf+1
  2095  001F8E  C04A  F035         	movff	sqrtf@q+2,??_sqrtf+2
  2096  001F92  C04B  F036         	movff	sqrtf@q+3,??_sqrtf+3
  2097  001F96  3436               	rlcf	??_sqrtf+3,w,c
  2098  001F98  3236               	rrcf	??_sqrtf+3,f,c
  2099  001F9A  3235               	rrcf	??_sqrtf+2,f,c
  2100  001F9C  3234               	rrcf	??_sqrtf+1,f,c
  2101  001F9E  3233               	rrcf	??_sqrtf,f,c
  2102  001FA0  0E00               	movlw	0
  2103  001FA2  2433               	addwf	??_sqrtf,w,c
  2104  001FA4  6E5C               	movwf	sqrtf@ix,c
  2105  001FA6  0E00               	movlw	0
  2106  001FA8  2034               	addwfc	??_sqrtf+1,w,c
  2107  001FAA  6E5D               	movwf	sqrtf@ix+1,c
  2108  001FAC  0E00               	movlw	0
  2109  001FAE  2035               	addwfc	??_sqrtf+2,w,c
  2110  001FB0  6E5E               	movwf	sqrtf@ix+2,c
  2111  001FB2  0E3F               	movlw	63
  2112  001FB4  2036               	addwfc	??_sqrtf+3,w,c
  2113  001FB6  6E5F               	movwf	sqrtf@ix+3,c
  2114  001FB8  C054  F033         	movff	sqrtf@m,??_sqrtf
  2115  001FBC  C055  F034         	movff	sqrtf@m+1,??_sqrtf+1
  2116  001FC0  C056  F035         	movff	sqrtf@m+2,??_sqrtf+2
  2117  001FC4  C057  F036         	movff	sqrtf@m+3,??_sqrtf+3
  2118  001FC8  0E17               	movlw	23
  2119  001FCA                     u3475:
  2120  001FCA  90D8               	bcf	status,0,c
  2121  001FCC  3633               	rlcf	??_sqrtf,f,c
  2122  001FCE  3634               	rlcf	??_sqrtf+1,f,c
  2123  001FD0  3635               	rlcf	??_sqrtf+2,f,c
  2124  001FD2  3636               	rlcf	??_sqrtf+3,f,c
  2125  001FD4  2EE8               	decfsz	wreg,f,c
  2126  001FD6  D7F9               	goto	u3475
  2127  001FD8  5033               	movf	??_sqrtf,w,c
  2128  001FDA  265C               	addwf	sqrtf@ix,f,c
  2129  001FDC  5034               	movf	??_sqrtf+1,w,c
  2130  001FDE  225D               	addwfc	sqrtf@ix+1,f,c
  2131  001FE0  5035               	movf	??_sqrtf+2,w,c
  2132  001FE2  225E               	addwfc	sqrtf@ix+2,f,c
  2133  001FE4  5036               	movf	??_sqrtf+3,w,c
  2134  001FE6  225F               	addwfc	sqrtf@ix+3,f,c
  2135  001FE8  C05C  F044         	movff	sqrtf@ix,sqrtf@__xc8_float_word
  2136  001FEC  C05D  F045         	movff	sqrtf@ix+1,sqrtf@__xc8_float_word+1
  2137  001FF0  C05E  F046         	movff	sqrtf@ix+2,sqrtf@__xc8_float_word+2
  2138  001FF4  C05F  F047         	movff	sqrtf@ix+3,sqrtf@__xc8_float_word+3
  2139  001FF8  C044  F050         	movff	sqrtf@__xc8_float_word,sqrtf@z
  2140  001FFC  C045  F051         	movff	sqrtf@__xc8_float_word+1,sqrtf@z+1
  2141  002000  C046  F052         	movff	sqrtf@__xc8_float_word+2,sqrtf@z+2
  2142  002004  C047  F053         	movff	sqrtf@__xc8_float_word+3,sqrtf@z+3
  2143  002008  C050  F02F         	movff	sqrtf@z,?_sqrtf
  2144  00200C  C051  F030         	movff	sqrtf@z+1,?_sqrtf+1
  2145  002010  C052  F031         	movff	sqrtf@z+2,?_sqrtf+2
  2146  002014  C053  F032         	movff	sqrtf@z+3,?_sqrtf+3
  2147  002018  0012               	return		;funcret
  2148  00201A                     __end_of_sqrtf:
  2149                           	opt callstack 0
  2150                           
  2151 ;; *************** function _nanf *****************
  2152 ;; Defined at:
  2153 ;;		line 4 in file "C:\Program Files (x86)\Microchip\xc8\v2.05\pic\sources\c99\common\nanf.c"
  2154 ;; Parameters:    Size  Location     Type
  2155 ;;  s               2    0[COMRAM] PTR const unsigned char 
  2156 ;;		 -> STR_2(1), 
  2157 ;; Auto vars:     Size  Location     Type
  2158 ;;  u               4    4[COMRAM] struct .
  2159 ;; Return value:  Size  Location     Type
  2160 ;;                  4    0[COMRAM] float 
  2161 ;; Registers used:
  2162 ;;		wreg, status,2
  2163 ;; Tracked objects:
  2164 ;;		On entry : 0/0
  2165 ;;		On exit  : 0/0
  2166 ;;		Unchanged: 0/0
  2167 ;; Data sizes:     COMRAM   BANK0   BANK1   BANK2   BANK3   BANK4   BANK5
  2168 ;;      Params:         4       0       0       0       0       0       0
  2169 ;;      Locals:         4       0       0       0       0       0       0
  2170 ;;      Temps:          0       0       0       0       0       0       0
  2171 ;;      Totals:         8       0       0       0       0       0       0
  2172 ;;Total ram usage:        8 bytes
  2173 ;; Hardware stack levels used:    1
  2174 ;; This function calls:
  2175 ;;		Nothing
  2176 ;; This function is called by:
  2177 ;;		_sqrtf
  2178 ;; This function uses a non-reentrant model
  2179 ;;
  2180                           
  2181                           	psect	text3
  2182  00318E                     __ptext3:
  2183                           	opt callstack 0
  2184  00318E                     _nanf:
  2185                           	opt callstack 28
  2186                           
  2187                           ;incstack = 0
  2188  00318E  0EFF               	movlw	255
  2189  003190  6E05               	movwf	nanf@u,c
  2190  003192  0EFF               	movlw	255
  2191  003194  6E06               	movwf	nanf@u+1,c
  2192  003196  0EFF               	movlw	255
  2193  003198  6E07               	movwf	nanf@u+2,c
  2194  00319A  0E7F               	movlw	127
  2195  00319C  6E08               	movwf	nanf@u+3,c
  2196  00319E  C005  F001         	movff	nanf@u,?_nanf
  2197  0031A2  C006  F002         	movff	nanf@u+1,?_nanf+1
  2198  0031A6  C007  F003         	movff	nanf@u+2,?_nanf+2
  2199  0031AA  C008  F004         	movff	nanf@u+3,?_nanf+3
  2200  0031AE  0012               	return		;funcret
  2201  0031B0                     __end_of_nanf:
  2202                           	opt callstack 0
  2203                           
  2204 ;; *************** function ___flge *****************
  2205 ;; Defined at:
  2206 ;;		line 4 in file "C:\Program Files (x86)\Microchip\xc8\v2.05\pic\sources\c99\common\flge.c"
  2207 ;; Parameters:    Size  Location     Type
  2208 ;;  ff1             4    0[COMRAM] float 
  2209 ;;  ff2             4    4[COMRAM] float 
  2210 ;; Auto vars:     Size  Location     Type
  2211 ;;		None
  2212 ;; Return value:  Size  Location     Type
  2213 ;;		None               void
  2214 ;; Registers used:
  2215 ;;		wreg, status,2, status,0
  2216 ;; Tracked objects:
  2217 ;;		On entry : 0/0
  2218 ;;		On exit  : 0/0
  2219 ;;		Unchanged: 0/0
  2220 ;; Data sizes:     COMRAM   BANK0   BANK1   BANK2   BANK3   BANK4   BANK5
  2221 ;;      Params:         8       0       0       0       0       0       0
  2222 ;;      Locals:         0       0       0       0       0       0       0
  2223 ;;      Temps:          4       0       0       0       0       0       0
  2224 ;;      Totals:        12       0       0       0       0       0       0
  2225 ;;Total ram usage:       12 bytes
  2226 ;; Hardware stack levels used:    1
  2227 ;; This function calls:
  2228 ;;		Nothing
  2229 ;; This function is called by:
  2230 ;;		_readSensors_old
  2231 ;;		_sqrtf
  2232 ;; This function uses a non-reentrant model
  2233 ;;
  2234                           
  2235                           	psect	text4
  2236  002B44                     __ptext4:
  2237                           	opt callstack 0
  2238  002B44                     ___flge:
  2239                           	opt callstack 28
  2240                           
  2241                           ;incstack = 0
  2242  002B44  0E00               	movlw	0
  2243  002B46  1401               	andwf	___flge@ff1,w,c
  2244  002B48  6E09               	movwf	??___flge& (0+255),c
  2245  002B4A  0E00               	movlw	0
  2246  002B4C  1402               	andwf	___flge@ff1+1,w,c
  2247  002B4E  6E0A               	movwf	(??___flge+1)& (0+255),c
  2248  002B50  0E80               	movlw	128
  2249  002B52  1403               	andwf	___flge@ff1+2,w,c
  2250  002B54  6E0B               	movwf	(??___flge+2)& (0+255),c
  2251  002B56  0E7F               	movlw	127
  2252  002B58  1404               	andwf	___flge@ff1+3,w,c
  2253  002B5A  6E0C               	movwf	(??___flge+3)& (0+255),c
  2254  002B5C  5009               	movf	??___flge,w,c
  2255  002B5E  100A               	iorwf	??___flge+1,w,c
  2256  002B60  100B               	iorwf	??___flge+2,w,c
  2257  002B62  100C               	iorwf	??___flge+3,w,c
  2258  002B64  A4D8               	btfss	status,2,c
  2259  002B66  D008               	goto	l3148
  2260  002B68  0E00               	movlw	0
  2261  002B6A  6E01               	movwf	___flge@ff1,c
  2262  002B6C  0E00               	movlw	0
  2263  002B6E  6E02               	movwf	___flge@ff1+1,c
  2264  002B70  0E00               	movlw	0
  2265  002B72  6E03               	movwf	___flge@ff1+2,c
  2266  002B74  0E00               	movlw	0
  2267  002B76  6E04               	movwf	___flge@ff1+3,c
  2268  002B78                     l3148:
  2269  002B78  0E00               	movlw	0
  2270  002B7A  1405               	andwf	___flge@ff2,w,c
  2271  002B7C  6E09               	movwf	??___flge& (0+255),c
  2272  002B7E  0E00               	movlw	0
  2273  002B80  1406               	andwf	___flge@ff2+1,w,c
  2274  002B82  6E0A               	movwf	(??___flge+1)& (0+255),c
  2275  002B84  0E80               	movlw	128
  2276  002B86  1407               	andwf	___flge@ff2+2,w,c
  2277  002B88  6E0B               	movwf	(??___flge+2)& (0+255),c
  2278  002B8A  0E7F               	movlw	127
  2279  002B8C  1408               	andwf	___flge@ff2+3,w,c
  2280  002B8E  6E0C               	movwf	(??___flge+3)& (0+255),c
  2281  002B90  5009               	movf	??___flge,w,c
  2282  002B92  100A               	iorwf	??___flge+1,w,c
  2283  002B94  100B               	iorwf	??___flge+2,w,c
  2284  002B96  100C               	iorwf	??___flge+3,w,c
  2285  002B98  A4D8               	btfss	status,2,c
  2286  002B9A  D008               	goto	l3152
  2287  002B9C  0E00               	movlw	0
  2288  002B9E  6E05               	movwf	___flge@ff2,c
  2289  002BA0  0E00               	movlw	0
  2290  002BA2  6E06               	movwf	___flge@ff2+1,c
  2291  002BA4  0E00               	movlw	0
  2292  002BA6  6E07               	movwf	___flge@ff2+2,c
  2293  002BA8  0E00               	movlw	0
  2294  002BAA  6E08               	movwf	___flge@ff2+3,c
  2295  002BAC                     l3152:
  2296  002BAC  AE04               	btfss	___flge@ff1+3,7,c
  2297  002BAE  D009               	goto	l3156
  2298  002BB0  6C01               	negf	___flge@ff1,c
  2299  002BB2  1E02               	comf	___flge@ff1+1,f,c
  2300  002BB4  B0D8               	btfsc	status,0,c
  2301  002BB6  2A02               	incf	___flge@ff1+1,f,c
  2302  002BB8  1E03               	comf	___flge@ff1+2,f,c
  2303  002BBA  B0D8               	btfsc	status,0,c
  2304  002BBC  2A03               	incf	___flge@ff1+2,f,c
  2305  002BBE  0E80               	movlw	128
  2306  002BC0  5604               	subfwb	___flge@ff1+3,f,c
  2307  002BC2                     l3156:
  2308  002BC2  AE08               	btfss	___flge@ff2+3,7,c
  2309  002BC4  D009               	goto	l400
  2310  002BC6  6C05               	negf	___flge@ff2,c
  2311  002BC8  1E06               	comf	___flge@ff2+1,f,c
  2312  002BCA  B0D8               	btfsc	status,0,c
  2313  002BCC  2A06               	incf	___flge@ff2+1,f,c
  2314  002BCE  1E07               	comf	___flge@ff2+2,f,c
  2315  002BD0  B0D8               	btfsc	status,0,c
  2316  002BD2  2A07               	incf	___flge@ff2+2,f,c
  2317  002BD4  0E80               	movlw	128
  2318  002BD6  5608               	subfwb	___flge@ff2+3,f,c
  2319  002BD8                     l400:
  2320  002BD8  0E00               	movlw	0
  2321  002BDA  1A01               	xorwf	___flge@ff1,f,c
  2322  002BDC  0E00               	movlw	0
  2323  002BDE  1A02               	xorwf	___flge@ff1+1,f,c
  2324  002BE0  0E00               	movlw	0
  2325  002BE2  1A03               	xorwf	___flge@ff1+2,f,c
  2326  002BE4  0E80               	movlw	128
  2327  002BE6  1A04               	xorwf	___flge@ff1+3,f,c
  2328  002BE8  0E00               	movlw	0
  2329  002BEA  1A05               	xorwf	___flge@ff2,f,c
  2330  002BEC  0E00               	movlw	0
  2331  002BEE  1A06               	xorwf	___flge@ff2+1,f,c
  2332  002BF0  0E00               	movlw	0
  2333  002BF2  1A07               	xorwf	___flge@ff2+2,f,c
  2334  002BF4  0E80               	movlw	128
  2335  002BF6  1A08               	xorwf	___flge@ff2+3,f,c
  2336  002BF8  5005               	movf	___flge@ff2,w,c
  2337  002BFA  5C01               	subwf	___flge@ff1,w,c
  2338  002BFC  5006               	movf	___flge@ff2+1,w,c
  2339  002BFE  5802               	subwfb	___flge@ff1+1,w,c
  2340  002C00  5007               	movf	___flge@ff2+2,w,c
  2341  002C02  5803               	subwfb	___flge@ff1+2,w,c
  2342  002C04  5008               	movf	___flge@ff2+3,w,c
  2343  002C06  5804               	subwfb	___flge@ff1+3,w,c
  2344  002C08  B0D8               	btfsc	status,0,c
  2345  002C0A  D002               	goto	l3162
  2346  002C0C  90D8               	bcf	status,0,c
  2347  002C0E  0012               	return	
  2348  002C10                     l3162:
  2349  002C10  80D8               	bsf	status,0,c
  2350  002C12  0012               	return		;funcret
  2351  002C14                     __end_of___flge:
  2352                           	opt callstack 0
  2353                           
  2354 ;; *************** function _printf *****************
  2355 ;; Defined at:
  2356 ;;		line 5 in file "C:\Program Files (x86)\Microchip\xc8\v2.05\pic\sources\c99\common\printf.c"
  2357 ;; Parameters:    Size  Location     Type
  2358 ;;  fmt             2   23[COMRAM] PTR const unsigned char 
  2359 ;;		 -> STR_1(1), 
  2360 ;; Auto vars:     Size  Location     Type
  2361 ;;  ap              2   27[COMRAM] PTR void [1]
  2362 ;;		 -> ?_printf(2), 
  2363 ;;  ret             2    0        int 
  2364 ;; Return value:  Size  Location     Type
  2365 ;;                  2   23[COMRAM] int 
  2366 ;; Registers used:
  2367 ;;		wreg, fsr1l, fsr1h, fsr2l, fsr2h, status,2, status,0, tblptrl, tblptrh, tblptru, cstack
  2368 ;; Tracked objects:
  2369 ;;		On entry : 0/0
  2370 ;;		On exit  : 0/0
  2371 ;;		Unchanged: 0/0
  2372 ;; Data sizes:     COMRAM   BANK0   BANK1   BANK2   BANK3   BANK4   BANK5
  2373 ;;      Params:         2       0       0       0       0       0       0
  2374 ;;      Locals:         4       0       0       0       0       0       0
  2375 ;;      Temps:          0       0       0       0       0       0       0
  2376 ;;      Totals:         6       0       0       0       0       0       0
  2377 ;;Total ram usage:        6 bytes
  2378 ;; Hardware stack levels used:    1
  2379 ;; Hardware stack levels required when called:    4
  2380 ;; This function calls:
  2381 ;;		_vfprintf
  2382 ;; This function is called by:
  2383 ;;		_readSensors_old
  2384 ;; This function uses a non-reentrant model
  2385 ;;
  2386                           
  2387                           	psect	text5
  2388  003168                     __ptext5:
  2389                           	opt callstack 0
  2390  003168                     _printf:
  2391                           	opt callstack 25
  2392                           
  2393                           ;incstack = 0
  2394  003168  0E1A               	movlw	low (?_printf+2)
  2395  00316A  6E1C               	movwf	printf@ap,c
  2396  00316C  0E00               	movlw	high (?_printf+2)
  2397  00316E  6E1D               	movwf	printf@ap+1,c
  2398  003170  0E00               	movlw	0
  2399  003172  6E10               	movwf	vfprintf@fp,c
  2400  003174  0E00               	movlw	0
  2401  003176  6E11               	movwf	vfprintf@fp+1,c
  2402  003178  C018  F012         	movff	printf@fmt,vfprintf@fmt
  2403  00317C  C019  F013         	movff	printf@fmt+1,vfprintf@fmt+1
  2404  003180  0E1C               	movlw	low printf@ap
  2405  003182  6E14               	movwf	vfprintf@ap,c
  2406  003184  0E00               	movlw	high printf@ap
  2407  003186  6E15               	movwf	vfprintf@ap+1,c
  2408  003188  EC09  F018         	call	_vfprintf	;wreg free
  2409  00318C  0012               	return		;funcret
  2410  00318E                     __end_of_printf:
  2411                           	opt callstack 0
  2412                           
  2413 ;; *************** function _vfprintf *****************
  2414 ;; Defined at:
  2415 ;;		line 1368 in file "C:\Program Files (x86)\Microchip\xc8\v2.05\pic\sources\c99\common\doprnt.c"
  2416 ;; Parameters:    Size  Location     Type
  2417 ;;  fp              2   15[COMRAM] PTR struct _IO_FILE
  2418 ;;		 -> NULL(0), 
  2419 ;;  fmt             2   17[COMRAM] PTR const unsigned char 
  2420 ;;		 -> STR_1(1), 
  2421 ;;  ap              2   19[COMRAM] PTR PTR void 
  2422 ;;		 -> printf@ap(2), 
  2423 ;; Auto vars:     Size  Location     Type
  2424 ;;  cfmt            2   21[COMRAM] PTR unsigned char 
  2425 ;;		 -> STR_1(1), 
  2426 ;; Return value:  Size  Location     Type
  2427 ;;                  2   15[COMRAM] int 
  2428 ;; Registers used:
  2429 ;;		wreg, fsr1l, fsr1h, fsr2l, fsr2h, status,2, status,0, tblptrl, tblptrh, tblptru, cstack
  2430 ;; Tracked objects:
  2431 ;;		On entry : 0/0
  2432 ;;		On exit  : 0/0
  2433 ;;		Unchanged: 0/0
  2434 ;; Data sizes:     COMRAM   BANK0   BANK1   BANK2   BANK3   BANK4   BANK5
  2435 ;;      Params:         6       0       0       0       0       0       0
  2436 ;;      Locals:         2       0       0       0       0       0       0
  2437 ;;      Temps:          0       0       0       0       0       0       0
  2438 ;;      Totals:         8       0       0       0       0       0       0
  2439 ;;Total ram usage:        8 bytes
  2440 ;; Hardware stack levels used:    1
  2441 ;; Hardware stack levels required when called:    3
  2442 ;; This function calls:
  2443 ;;		_vfpfcnvrt
  2444 ;; This function is called by:
  2445 ;;		_printf
  2446 ;; This function uses a non-reentrant model
  2447 ;;
  2448                           
  2449                           	psect	text6
  2450  003012                     __ptext6:
  2451                           	opt callstack 0
  2452  003012                     _vfprintf:
  2453                           	opt callstack 25
  2454                           
  2455                           ;C:\Program Files (x86)\Microchip\xc8\v2.05\pic\sources\c99\common\doprnt.c: 1368: int v
      +                          fprintf(FILE *fp, const char *fmt, va_list ap);C:\Program Files (x86)\Microchip\xc8\v2.0
      +                          5\pic\sources\c99\common\doprnt.c: 1369: {;C:\Program Files (x86)\Microchip\xc8\v2.05\pi
      +                          c\sources\c99\common\doprnt.c: 1371:     char *cfmt;;C:\Program Files (x86)\Microchip\xc
      +                          8\v2.05\pic\sources\c99\common\doprnt.c: 1373:     cfmt = (char *)fmt;
  2456                           
  2457                           ;incstack = 0
  2458  003012  C012  F016         	movff	vfprintf@fmt,vfprintf@cfmt
  2459  003016  C013  F017         	movff	vfprintf@fmt+1,vfprintf@cfmt+1
  2460                           
  2461                           ;C:\Program Files (x86)\Microchip\xc8\v2.05\pic\sources\c99\common\doprnt.c: 1374:     n
      +                          out = 0;
  2462  00301A  0E00               	movlw	0
  2463  00301C  6E7F               	movwf	_nout+1,c
  2464  00301E  0E00               	movlw	0
  2465  003020  6E7E               	movwf	_nout,c
  2466                           
  2467                           ;C:\Program Files (x86)\Microchip\xc8\v2.05\pic\sources\c99\common\doprnt.c: 1375:     w
      +                          hile (*cfmt) {
  2468  003022  D012               	goto	l3142
  2469  003024                     l3140:
  2470                           
  2471                           ;C:\Program Files (x86)\Microchip\xc8\v2.05\pic\sources\c99\common\doprnt.c: 1376:      
      +                             nout += vfpfcnvrt(fp, &cfmt, ap);
  2472  003024  C010  F00A         	movff	vfprintf@fp,vfpfcnvrt@fp
  2473  003028  C011  F00B         	movff	vfprintf@fp+1,vfpfcnvrt@fp+1
  2474  00302C  0E16               	movlw	low vfprintf@cfmt
  2475  00302E  6E0C               	movwf	vfpfcnvrt@fmt,c
  2476  003030  0E00               	movlw	high vfprintf@cfmt
  2477  003032  6E0D               	movwf	vfpfcnvrt@fmt+1,c
  2478  003034  C014  F00E         	movff	vfprintf@ap,vfpfcnvrt@ap
  2479  003038  C015  F00F         	movff	vfprintf@ap+1,vfpfcnvrt@ap+1
  2480  00303C  EC0A  F016         	call	_vfpfcnvrt	;wreg free
  2481  003040  500A               	movf	?_vfpfcnvrt,w,c
  2482  003042  267E               	addwf	_nout,f,c
  2483  003044  500B               	movf	?_vfpfcnvrt+1,w,c
  2484  003046  227F               	addwfc	_nout+1,f,c
  2485  003048                     l3142:
  2486                           
  2487                           ;C:\Program Files (x86)\Microchip\xc8\v2.05\pic\sources\c99\common\doprnt.c: 1375:     w
      +                          hile (*cfmt) {
  2488  003048  C016  FFF6         	movff	vfprintf@cfmt,tblptrl
  2489  00304C  C017  FFF7         	movff	vfprintf@cfmt+1,tblptrh
  2490  003050                     	if	0	;tblptru may be non-zero
  2491  003050                     	endif
  2492  003050                     	if	0	;tblptru may be non-zero
  2493  003050                     	endif
  2494  003050  0008               	tblrd		*
  2495  003052  50F5               	movf	tablat,w,c
  2496  003054  0900               	iorlw	0
  2497  003056  A4D8               	btfss	status,2,c
  2498  003058  D7E5               	goto	l3140
  2499                           
  2500                           ;C:\Program Files (x86)\Microchip\xc8\v2.05\pic\sources\c99\common\doprnt.c: 1378:     r
      +                          eturn nout;
  2501  00305A  C07E  F010         	movff	_nout,?_vfprintf
  2502  00305E  C07F  F011         	movff	_nout+1,?_vfprintf+1
  2503  003062  0012               	return		;funcret
  2504  003064                     __end_of_vfprintf:
  2505                           	opt callstack 0
  2506                           
  2507 ;; *************** function _vfpfcnvrt *****************
  2508 ;; Defined at:
  2509 ;;		line 670 in file "C:\Program Files (x86)\Microchip\xc8\v2.05\pic\sources\c99\common\doprnt.c"
  2510 ;; Parameters:    Size  Location     Type
  2511 ;;  fp              2    9[COMRAM] PTR struct _IO_FILE
  2512 ;;		 -> NULL(0), 
  2513 ;;  fmt             2   11[COMRAM] PTR PTR unsigned char 
  2514 ;;		 -> vfprintf@cfmt(2), 
  2515 ;;  ap              2   13[COMRAM] PTR PTR void 
  2516 ;;		 -> printf@ap(2), 
  2517 ;; Auto vars:     Size  Location     Type
  2518 ;;  llu             8    0        unsigned long long 
  2519 ;;  ll              8    0        long long 
  2520 ;;  f               4    0        long long 
  2521 ;;  vp              3    0        PTR void 
  2522 ;;  ct              3    0        unsigned char [3]
  2523 ;;  cp              3    0        PTR unsigned char 
  2524 ;;  i               2    0        int 
  2525 ;;  done            2    0        int 
  2526 ;;  c               1    0        unsigned char 
  2527 ;; Return value:  Size  Location     Type
  2528 ;;                  2    9[COMRAM] int 
  2529 ;; Registers used:
  2530 ;;		wreg, fsr1l, fsr1h, fsr2l, fsr2h, status,2, status,0, tblptrl, tblptrh, tblptru, cstack
  2531 ;; Tracked objects:
  2532 ;;		On entry : 0/0
  2533 ;;		On exit  : 0/0
  2534 ;;		Unchanged: 0/0
  2535 ;; Data sizes:     COMRAM   BANK0   BANK1   BANK2   BANK3   BANK4   BANK5
  2536 ;;      Params:         6       0       0       0       0       0       0
  2537 ;;      Locals:         0       0       0       0       0       0       0
  2538 ;;      Temps:          0       0       0       0       0       0       0
  2539 ;;      Totals:         6       0       0       0       0       0       0
  2540 ;;Total ram usage:        6 bytes
  2541 ;; Hardware stack levels used:    1
  2542 ;; Hardware stack levels required when called:    2
  2543 ;; This function calls:
  2544 ;;		_fputc
  2545 ;; This function is called by:
  2546 ;;		_vfprintf
  2547 ;; This function uses a non-reentrant model
  2548 ;;
  2549                           
  2550                           	psect	text7
  2551  002C14                     __ptext7:
  2552                           	opt callstack 0
  2553  002C14                     _vfpfcnvrt:
  2554                           	opt callstack 25
  2555                           
  2556                           ;C:\Program Files (x86)\Microchip\xc8\v2.05\pic\sources\c99\common\doprnt.c: 670: static
      +                           int vfpfcnvrt(FILE *fp, char *fmt[], va_list ap);C:\Program Files (x86)\Microchip\xc8\v
      +                          2.05\pic\sources\c99\common\doprnt.c: 671: {;C:\Program Files (x86)\Microchip\xc8\v2.05\
      +                          pic\sources\c99\common\doprnt.c: 672:     char c, *cp, ct[3];;C:\Program Files (x86)\Mic
      +                          rochip\xc8\v2.05\pic\sources\c99\common\doprnt.c: 673:     int done, i;;C:\Program Files
      +                           (x86)\Microchip\xc8\v2.05\pic\sources\c99\common\doprnt.c: 674:     long long ll;
  2557                           
  2558                           ;incstack = 0
  2559  002C14  C00C  FFD9         	movff	vfpfcnvrt@fmt,fsr2l
  2560  002C18  C00D  FFDA         	movff	vfpfcnvrt@fmt+1,fsr2h
  2561  002C1C  CFDE FFF6          	movff	postinc2,tblptrl
  2562  002C20  CFDD FFF7          	movff	postdec2,tblptrh
  2563  002C24                     	if	0	;tblptru may be non-zero
  2564  002C24                     	endif
  2565  002C24                     	if	0	;tblptru may be non-zero
  2566  002C24                     	endif
  2567  002C24  0008               	tblrd		*
  2568  002C26  50F5               	movf	tablat,w,c
  2569  002C28  0A25               	xorlw	37
  2570  002C2A  A4D8               	btfss	status,2,c
  2571  002C2C  D041               	goto	l2816
  2572                           
  2573                           ;C:\Program Files (x86)\Microchip\xc8\v2.05\pic\sources\c99\common\doprnt.c: 681:       
      +                            ++*fmt;
  2574  002C2E  C00C  FFD9         	movff	vfpfcnvrt@fmt,fsr2l
  2575  002C32  C00D  FFDA         	movff	vfpfcnvrt@fmt+1,fsr2h
  2576  002C36  2ADE               	incf	postinc2,f,c
  2577  002C38  0E00               	movlw	0
  2578  002C3A  22DD               	addwfc	postdec2,f,c
  2579                           
  2580                           ;C:\Program Files (x86)\Microchip\xc8\v2.05\pic\sources\c99\common\doprnt.c: 683:       
      +                            flags = width = 0;
  2581  002C3C  0E00               	movlw	0
  2582  002C3E  0100               	movlb	0	; () banked
  2583  002C40  6FF9               	movwf	(_width+1)& (0+255),b
  2584  002C42  0E00               	movlw	0
  2585  002C44  6FF8               	movwf	_width& (0+255),b
  2586  002C46  C0F8  F0FC         	movff	_width,_flags
  2587  002C4A  C0F9  F0FD         	movff	_width+1,_flags+1
  2588                           
  2589                           ; BSR set to: 0
  2590                           ;C:\Program Files (x86)\Microchip\xc8\v2.05\pic\sources\c99\common\doprnt.c: 684:       
      +                            prec = -1;
  2591  002C4E  69FA               	setf	_prec& (0+255),b
  2592  002C50  69FB               	setf	(_prec+1)& (0+255),b
  2593                           
  2594                           ; BSR set to: 0
  2595                           ;C:\Program Files (x86)\Microchip\xc8\v2.05\pic\sources\c99\common\doprnt.c: 1350:      
      +                             if ((*fmt)[0] == '%') {
  2596  002C52  C00C  FFD9         	movff	vfpfcnvrt@fmt,fsr2l
  2597  002C56  C00D  FFDA         	movff	vfpfcnvrt@fmt+1,fsr2h
  2598  002C5A  CFDE FFF6          	movff	postinc2,tblptrl
  2599  002C5E  CFDD FFF7          	movff	postdec2,tblptrh
  2600  002C62                     	if	0	;tblptru may be non-zero
  2601  002C62                     	endif
  2602  002C62                     	if	0	;tblptru may be non-zero
  2603  002C62                     	endif
  2604  002C62  0008               	tblrd		*
  2605  002C64  50F5               	movf	tablat,w,c
  2606  002C66  0A25               	xorlw	37
  2607  002C68  A4D8               	btfss	status,2,c
  2608  002C6A  D016               	goto	l2810
  2609                           
  2610                           ; BSR set to: 0
  2611                           ;C:\Program Files (x86)\Microchip\xc8\v2.05\pic\sources\c99\common\doprnt.c: 1351:      
      +                                 ++*fmt;
  2612  002C6C  C00C  FFD9         	movff	vfpfcnvrt@fmt,fsr2l
  2613  002C70  C00D  FFDA         	movff	vfpfcnvrt@fmt+1,fsr2h
  2614  002C74  2ADE               	incf	postinc2,f,c
  2615  002C76  0E00               	movlw	0
  2616  002C78  22DD               	addwfc	postdec2,f,c
  2617                           
  2618                           ; BSR set to: 0
  2619                           ;C:\Program Files (x86)\Microchip\xc8\v2.05\pic\sources\c99\common\doprnt.c: 1352:      
      +                                 fputc((int)'%', fp);
  2620  002C7A  0E00               	movlw	0
  2621  002C7C  6E02               	movwf	fputc@c+1,c
  2622  002C7E  0E25               	movlw	37
  2623  002C80  6E01               	movwf	fputc@c,c
  2624  002C82  C00A  F003         	movff	vfpfcnvrt@fp,fputc@fp
  2625  002C86  C00B  F004         	movff	vfpfcnvrt@fp+1,fputc@fp+1
  2626  002C8A  ECD3  F017         	call	_fputc	;wreg free
  2627  002C8E                     l2806:
  2628                           
  2629                           ;C:\Program Files (x86)\Microchip\xc8\v2.05\pic\sources\c99\common\doprnt.c: 1353:      
      +                                 return 1;
  2630  002C8E  0E00               	movlw	0
  2631  002C90  6E0B               	movwf	?_vfpfcnvrt+1,c
  2632  002C92  0E01               	movlw	1
  2633  002C94  6E0A               	movwf	?_vfpfcnvrt,c
  2634  002C96  0012               	return	
  2635  002C98                     l2810:
  2636                           
  2637                           ; BSR set to: 0
  2638                           ;C:\Program Files (x86)\Microchip\xc8\v2.05\pic\sources\c99\common\doprnt.c: 1357:      
      +                             ++*fmt;
  2639  002C98  C00C  FFD9         	movff	vfpfcnvrt@fmt,fsr2l
  2640  002C9C  C00D  FFDA         	movff	vfpfcnvrt@fmt+1,fsr2h
  2641  002CA0  2ADE               	incf	postinc2,f,c
  2642  002CA2  0E00               	movlw	0
  2643  002CA4  22DD               	addwfc	postdec2,f,c
  2644                           
  2645                           ; BSR set to: 0
  2646                           ;C:\Program Files (x86)\Microchip\xc8\v2.05\pic\sources\c99\common\doprnt.c: 1358:      
      +                             return 0;
  2647  002CA6  0E00               	movlw	0
  2648  002CA8  6E0B               	movwf	?_vfpfcnvrt+1,c
  2649  002CAA  0E00               	movlw	0
  2650  002CAC  6E0A               	movwf	?_vfpfcnvrt,c
  2651  002CAE  0012               	return	
  2652  002CB0                     l2816:
  2653                           
  2654                           ;C:\Program Files (x86)\Microchip\xc8\v2.05\pic\sources\c99\common\doprnt.c: 1362:     f
      +                          putc((int)(*fmt)[0], fp);
  2655  002CB0  C00C  FFD9         	movff	vfpfcnvrt@fmt,fsr2l
  2656  002CB4  C00D  FFDA         	movff	vfpfcnvrt@fmt+1,fsr2h
  2657  002CB8  CFDE FFF6          	movff	postinc2,tblptrl
  2658  002CBC  CFDD FFF7          	movff	postdec2,tblptrh
  2659  002CC0                     	if	0	;tblptru may be non-zero
  2660  002CC0                     	endif
  2661  002CC0                     	if	0	;tblptru may be non-zero
  2662  002CC0                     	endif
  2663  002CC0  0008               	tblrd		*
  2664  002CC2  50F5               	movf	tablat,w,c
  2665  002CC4  6E01               	movwf	fputc@c,c
  2666  002CC6  6A02               	clrf	fputc@c+1,c
  2667  002CC8  C00A  F003         	movff	vfpfcnvrt@fp,fputc@fp
  2668  002CCC  C00B  F004         	movff	vfpfcnvrt@fp+1,fputc@fp+1
  2669  002CD0  ECD3  F017         	call	_fputc	;wreg free
  2670                           
  2671                           ;C:\Program Files (x86)\Microchip\xc8\v2.05\pic\sources\c99\common\doprnt.c: 1363:     +
      +                          +*fmt;
  2672  002CD4  C00C  FFD9         	movff	vfpfcnvrt@fmt,fsr2l
  2673  002CD8  C00D  FFDA         	movff	vfpfcnvrt@fmt+1,fsr2h
  2674  002CDC  2ADE               	incf	postinc2,f,c
  2675  002CDE  0E00               	movlw	0
  2676  002CE0  22DD               	addwfc	postdec2,f,c
  2677  002CE2  D7D5               	goto	l2806
  2678  002CE4                     __end_of_vfpfcnvrt:
  2679                           	opt callstack 0
  2680                           
  2681 ;; *************** function _fputc *****************
  2682 ;; Defined at:
  2683 ;;		line 8 in file "C:\Program Files (x86)\Microchip\xc8\v2.05\pic\sources\c99\common\nf_fputc.c"
  2684 ;; Parameters:    Size  Location     Type
  2685 ;;  c               2    0[COMRAM] int 
  2686 ;;  fp              2    2[COMRAM] PTR struct _IO_FILE
  2687 ;;		 -> NULL(0), 
  2688 ;; Auto vars:     Size  Location     Type
  2689 ;;		None
  2690 ;; Return value:  Size  Location     Type
  2691 ;;                  2    0[COMRAM] int 
  2692 ;; Registers used:
  2693 ;;		wreg, fsr1l, fsr1h, fsr2l, fsr2h, status,2, status,0, cstack
  2694 ;; Tracked objects:
  2695 ;;		On entry : 0/0
  2696 ;;		On exit  : 0/0
  2697 ;;		Unchanged: 0/0
  2698 ;; Data sizes:     COMRAM   BANK0   BANK1   BANK2   BANK3   BANK4   BANK5
  2699 ;;      Params:         4       0       0       0       0       0       0
  2700 ;;      Locals:         0       0       0       0       0       0       0
  2701 ;;      Temps:          5       0       0       0       0       0       0
  2702 ;;      Totals:         9       0       0       0       0       0       0
  2703 ;;Total ram usage:        9 bytes
  2704 ;; Hardware stack levels used:    1
  2705 ;; Hardware stack levels required when called:    1
  2706 ;; This function calls:
  2707 ;;		_putch
  2708 ;; This function is called by:
  2709 ;;		_vfpfcnvrt
  2710 ;; This function uses a non-reentrant model
  2711 ;;
  2712                           
  2713                           	psect	text8
  2714  002FA6                     __ptext8:
  2715                           	opt callstack 0
  2716  002FA6                     _fputc:
  2717                           	opt callstack 25
  2718                           
  2719                           ;incstack = 0
  2720  002FA6  5003               	movf	fputc@fp,w,c
  2721  002FA8  1004               	iorwf	fputc@fp+1,w,c
  2722  002FAA  B4D8               	btfsc	status,2,c
  2723  002FAC  D004               	goto	u2080
  2724  002FAE  5003               	movf	fputc@fp,w,c
  2725  002FB0  1004               	iorwf	fputc@fp+1,w,c
  2726  002FB2  A4D8               	btfss	status,2,c
  2727  002FB4  D004               	goto	l2582
  2728  002FB6                     u2080:
  2729  002FB6  5001               	movf	fputc@c,w,c
  2730  002FB8  ECD8  F018         	call	_putch
  2731  002FBC  0012               	return	
  2732  002FBE                     l2582:
  2733  002FBE  EE20 F004          	lfsr	2,4
  2734  002FC2  5003               	movf	fputc@fp,w,c
  2735  002FC4  26D9               	addwf	fsr2l,f,c
  2736  002FC6  5004               	movf	fputc@fp+1,w,c
  2737  002FC8  22DA               	addwfc	fsr2h,f,c
  2738  002FCA  50DE               	movf	postinc2,w,c
  2739  002FCC  10DE               	iorwf	postinc2,w,c
  2740  002FCE  B4D8               	btfsc	status,2,c
  2741  002FD0  D016               	goto	u2100
  2742  002FD2  EE20 F004          	lfsr	2,4
  2743  002FD6  5003               	movf	fputc@fp,w,c
  2744  002FD8  26D9               	addwf	fsr2l,f,c
  2745  002FDA  5004               	movf	fputc@fp+1,w,c
  2746  002FDC  22DA               	addwfc	fsr2h,f,c
  2747  002FDE  EE10 F002          	lfsr	1,2
  2748  002FE2  5003               	movf	fputc@fp,w,c
  2749  002FE4  26E1               	addwf	fsr1l,f,c
  2750  002FE6  5004               	movf	fputc@fp+1,w,c
  2751  002FE8  22E2               	addwfc	fsr1h,f,c
  2752  002FEA  50DE               	movf	postinc2,w,c
  2753  002FEC  5CE6               	subwf	postinc1,w,c
  2754  002FEE  50E6               	movf	postinc1,w,c
  2755  002FF0  0A80               	xorlw	128
  2756  002FF2  6E09               	movwf	(??_fputc+4)& (0+255),c
  2757  002FF4  50DE               	movf	postinc2,w,c
  2758  002FF6  0A80               	xorlw	128
  2759  002FF8  5809               	subwfb	(??_fputc+4)& (0+255),w,c
  2760  002FFA  B0D8               	btfsc	status,0,c
  2761  002FFC  0012               	return	
  2762  002FFE                     u2100:
  2763  002FFE  EE20 F002          	lfsr	2,2
  2764  003002  5003               	movf	fputc@fp,w,c
  2765  003004  26D9               	addwf	fsr2l,f,c
  2766  003006  5004               	movf	fputc@fp+1,w,c
  2767  003008  22DA               	addwfc	fsr2h,f,c
  2768  00300A  2ADE               	incf	postinc2,f,c
  2769  00300C  0E00               	movlw	0
  2770  00300E  22DD               	addwfc	postdec2,f,c
  2771  003010  0012               	return		;funcret
  2772  003012                     __end_of_fputc:
  2773                           	opt callstack 0
  2774                           
  2775 ;; *************** function _putch *****************
  2776 ;; Defined at:
  2777 ;;		line 7 in file "C:\Program Files (x86)\Microchip\xc8\v2.05\pic\sources\c99\common\putch.c"
  2778 ;; Parameters:    Size  Location     Type
  2779 ;;  c               1    wreg     unsigned char 
  2780 ;; Auto vars:     Size  Location     Type
  2781 ;;  c               1    0[COMRAM] unsigned char 
  2782 ;; Return value:  Size  Location     Type
  2783 ;;                  1    wreg      void 
  2784 ;; Registers used:
  2785 ;;		wreg
  2786 ;; Tracked objects:
  2787 ;;		On entry : 0/0
  2788 ;;		On exit  : 0/0
  2789 ;;		Unchanged: 0/0
  2790 ;; Data sizes:     COMRAM   BANK0   BANK1   BANK2   BANK3   BANK4   BANK5
  2791 ;;      Params:         0       0       0       0       0       0       0
  2792 ;;      Locals:         0       0       0       0       0       0       0
  2793 ;;      Temps:          0       0       0       0       0       0       0
  2794 ;;      Totals:         0       0       0       0       0       0       0
  2795 ;;Total ram usage:        0 bytes
  2796 ;; Hardware stack levels used:    1
  2797 ;; This function calls:
  2798 ;;		Nothing
  2799 ;; This function is called by:
  2800 ;;		_fputc
  2801 ;; This function uses a non-reentrant model
  2802 ;;
  2803                           
  2804                           	psect	text9
  2805  0031B0                     __ptext9:
  2806                           	opt callstack 0
  2807  0031B0                     _putch:
  2808                           	opt callstack 25
  2809                           
  2810                           ;incstack = 0
  2811  0031B0  0012               	return		;funcret
  2812  0031B2                     __end_of_putch:
  2813                           	opt callstack 0
  2814                           
  2815 ;; *************** function _atan2f *****************
  2816 ;; Defined at:
  2817 ;;		line 22 in file "C:\Program Files (x86)\Microchip\xc8\v2.05\pic\sources\c99\common\atan2f.c"
  2818 ;; Parameters:    Size  Location     Type
  2819 ;;  y               4   87[COMRAM] float 
  2820 ;;  x               4   91[COMRAM] float 
  2821 ;; Auto vars:     Size  Location     Type
  2822 ;;  m               4   78[BANK0 ] unsigned long 
  2823 ;;  iy              4   74[BANK0 ] unsigned long 
  2824 ;;  ix              4   70[BANK0 ] unsigned long 
  2825 ;;  z               4   66[BANK0 ] float 
  2826 ;;  __xc8_float_    4   62[BANK0 ] struct .
  2827 ;; Return value:  Size  Location     Type
  2828 ;;                  4   87[COMRAM] float 
  2829 ;; Registers used:
  2830 ;;		wreg, status,2, status,0, tblptrl, tblptrh, tblptru, prodl, prodh, cstack
  2831 ;; Tracked objects:
  2832 ;;		On entry : 0/0
  2833 ;;		On exit  : 0/0
  2834 ;;		Unchanged: 0/0
  2835 ;; Data sizes:     COMRAM   BANK0   BANK1   BANK2   BANK3   BANK4   BANK5
  2836 ;;      Params:         8       0       0       0       0       0       0
  2837 ;;      Locals:         0      32       0       0       0       0       0
  2838 ;;      Temps:         16       0       0       0       0       0       0
  2839 ;;      Totals:        24      32       0       0       0       0       0
  2840 ;;Total ram usage:       56 bytes
  2841 ;; Hardware stack levels used:    1
  2842 ;; Hardware stack levels required when called:    3
  2843 ;; This function calls:
  2844 ;;		___fladd
  2845 ;;		___fldiv
  2846 ;;		___flneg
  2847 ;;		___flsub
  2848 ;;		___fpclassifyf
  2849 ;;		_atanf
  2850 ;;		_fabsf
  2851 ;; This function is called by:
  2852 ;;		_readSensors_old
  2853 ;; This function uses a non-reentrant model
  2854 ;;
  2855                           
  2856                           	psect	text10
  2857  001616                     __ptext10:
  2858                           	opt callstack 0
  2859  001616                     _atan2f:
  2860                           	opt callstack 26
  2861                           
  2862                           ;incstack = 0
  2863  001616  C05C  F001         	movff	atan2f@x,___fpclassifyf@x
  2864  00161A  C05D  F002         	movff	atan2f@x+1,___fpclassifyf@x+1
  2865  00161E  C05E  F003         	movff	atan2f@x+2,___fpclassifyf@x+2
  2866  001622  C05F  F004         	movff	atan2f@x+3,___fpclassifyf@x+3
  2867  001626  EC72  F016         	call	___fpclassifyf	;wreg free
  2868  00162A  5001               	movf	?___fpclassifyf,w,c
  2869  00162C  1002               	iorwf	?___fpclassifyf+1,w,c
  2870  00162E  B4D8               	btfsc	status,2,c
  2871  001630  D00E               	goto	u3200
  2872  001632  C058  F001         	movff	atan2f@y,___fpclassifyf@x
  2873  001636  C059  F002         	movff	atan2f@y+1,___fpclassifyf@x+1
  2874  00163A  C05A  F003         	movff	atan2f@y+2,___fpclassifyf@x+2
  2875  00163E  C05B  F004         	movff	atan2f@y+3,___fpclassifyf@x+3
  2876  001642  EC72  F016         	call	___fpclassifyf	;wreg free
  2877  001646  5001               	movf	?___fpclassifyf,w,c
  2878  001648  1002               	iorwf	?___fpclassifyf+1,w,c
  2879  00164A  A4D8               	btfss	status,2,c
  2880  00164C  D01B               	goto	l823
  2881  00164E                     u3200:
  2882  00164E  C05C  F01F         	movff	atan2f@x,___fladd@b
  2883  001652  C05D  F020         	movff	atan2f@x+1,___fladd@b+1
  2884  001656  C05E  F021         	movff	atan2f@x+2,___fladd@b+2
  2885  00165A  C05F  F022         	movff	atan2f@x+3,___fladd@b+3
  2886  00165E  C058  F023         	movff	atan2f@y,___fladd@a
  2887  001662  C059  F024         	movff	atan2f@y+1,___fladd@a+1
  2888  001666  C05A  F025         	movff	atan2f@y+2,___fladd@a+2
  2889  00166A  C05B  F026         	movff	atan2f@y+3,___fladd@a+3
  2890  00166E  ECB6  F011         	call	___fladd	;wreg free
  2891  001672  C01F  F058         	movff	?___fladd,?_atan2f
  2892  001676  C020  F059         	movff	?___fladd+1,?_atan2f+1
  2893  00167A  C021  F05A         	movff	?___fladd+2,?_atan2f+2
  2894  00167E  C022  F05B         	movff	?___fladd+3,?_atan2f+3
  2895  001682  0012               	return	
  2896  001684                     l823:
  2897  001684  C05C  F0BE         	movff	atan2f@x,atan2f@__xc8_float_word
  2898  001688  C05D  F0BF         	movff	atan2f@x+1,atan2f@__xc8_float_word+1
  2899  00168C  C05E  F0C0         	movff	atan2f@x+2,atan2f@__xc8_float_word+2
  2900  001690  C05F  F0C1         	movff	atan2f@x+3,atan2f@__xc8_float_word+3
  2901  001694  C0BE  F0C6         	movff	atan2f@__xc8_float_word,atan2f@ix
  2902  001698  C0BF  F0C7         	movff	atan2f@__xc8_float_word+1,atan2f@ix+1
  2903  00169C  C0C0  F0C8         	movff	atan2f@__xc8_float_word+2,atan2f@ix+2
  2904  0016A0  C0C1  F0C9         	movff	atan2f@__xc8_float_word+3,atan2f@ix+3
  2905  0016A4  C058  F0BE         	movff	atan2f@y,atan2f@__xc8_float_word
  2906  0016A8  C059  F0BF         	movff	atan2f@y+1,atan2f@__xc8_float_word+1
  2907  0016AC  C05A  F0C0         	movff	atan2f@y+2,atan2f@__xc8_float_word+2
  2908  0016B0  C05B  F0C1         	movff	atan2f@y+3,atan2f@__xc8_float_word+3
  2909  0016B4  C0BE  F0CA         	movff	atan2f@__xc8_float_word,atan2f@iy
  2910  0016B8  C0BF  F0CB         	movff	atan2f@__xc8_float_word+1,atan2f@iy+1
  2911  0016BC  C0C0  F0CC         	movff	atan2f@__xc8_float_word+2,atan2f@iy+2
  2912  0016C0  C0C1  F0CD         	movff	atan2f@__xc8_float_word+3,atan2f@iy+3
  2913  0016C4  0E80               	movlw	128
  2914  0016C6  0100               	movlb	0	; () banked
  2915  0016C8  19C8               	xorwf	(atan2f@ix+2)& (0+255),w,b
  2916  0016CA  E119               	bnz	l3280
  2917  0016CC  0E3F               	movlw	63
  2918  0016CE  19C9               	xorwf	(atan2f@ix+3)& (0+255),w,b
  2919  0016D0  11C6               	iorwf	atan2f@ix& (0+255),w,b
  2920  0016D2  11C7               	iorwf	(atan2f@ix+1)& (0+255),w,b
  2921  0016D4  A4D8               	btfss	status,2,c
  2922  0016D6  D013               	goto	l3280
  2923                           
  2924                           ; BSR set to: 0
  2925  0016D8  C058  F050         	movff	atan2f@y,atanf@x
  2926  0016DC  C059  F051         	movff	atan2f@y+1,atanf@x+1
  2927  0016E0  C05A  F052         	movff	atan2f@y+2,atanf@x+2
  2928  0016E4  C05B  F053         	movff	atan2f@y+3,atanf@x+3
  2929  0016E8  EC4F  F007         	call	_atanf	;wreg free
  2930  0016EC  C050  F058         	movff	?_atanf,?_atan2f
  2931  0016F0  C051  F059         	movff	?_atanf+1,?_atan2f+1
  2932  0016F4  C052  F05A         	movff	?_atanf+2,?_atan2f+2
  2933  0016F8  C053  F05B         	movff	?_atanf+3,?_atan2f+3
  2934  0016FC  0012               	return	
  2935  0016FE                     l3280:
  2936                           
  2937                           ; BSR set to: 0
  2938  0016FE  C0C6  F060         	movff	atan2f@ix,??_atan2f
  2939  001702  C0C7  F061         	movff	atan2f@ix+1,??_atan2f+1
  2940  001706  C0C8  F062         	movff	atan2f@ix+2,??_atan2f+2
  2941  00170A  C0C9  F063         	movff	atan2f@ix+3,??_atan2f+3
  2942  00170E  0E1F               	movlw	31
  2943  001710  D005               	goto	u3220
  2944  001712                     u3225:
  2945  001712  90D8               	bcf	status,0,c
  2946  001714  3263               	rrcf	??_atan2f+3,f,c
  2947  001716  3262               	rrcf	??_atan2f+2,f,c
  2948  001718  3261               	rrcf	??_atan2f+1,f,c
  2949  00171A  3260               	rrcf	??_atan2f,f,c
  2950  00171C                     u3220:
  2951  00171C  2EE8               	decfsz	wreg,f,c
  2952  00171E  D7F9               	goto	u3225
  2953  001720  0E02               	movlw	2
  2954  001722  1460               	andwf	??_atan2f,w,c
  2955  001724  6E64               	movwf	(??_atan2f+4)& (0+255),c
  2956  001726  0E00               	movlw	0
  2957  001728  1461               	andwf	??_atan2f+1,w,c
  2958  00172A  6E65               	movwf	(??_atan2f+5)& (0+255),c
  2959  00172C  0E00               	movlw	0
  2960  00172E  1462               	andwf	??_atan2f+2,w,c
  2961  001730  6E66               	movwf	(??_atan2f+6)& (0+255),c
  2962  001732  0E00               	movlw	0
  2963  001734  1463               	andwf	??_atan2f+3,w,c
  2964  001736  6E67               	movwf	(??_atan2f+7)& (0+255),c
  2965  001738  C0CA  F068         	movff	atan2f@iy,??_atan2f+8
  2966  00173C  C0CB  F069         	movff	atan2f@iy+1,??_atan2f+9
  2967  001740  C0CC  F06A         	movff	atan2f@iy+2,??_atan2f+10
  2968  001744  C0CD  F06B         	movff	atan2f@iy+3,??_atan2f+11
  2969  001748  0E20               	movlw	32
  2970  00174A  D005               	goto	u3230
  2971  00174C                     u3235:
  2972  00174C  90D8               	bcf	status,0,c
  2973  00174E  326B               	rrcf	??_atan2f+11,f,c
  2974  001750  326A               	rrcf	??_atan2f+10,f,c
  2975  001752  3269               	rrcf	??_atan2f+9,f,c
  2976  001754  3268               	rrcf	??_atan2f+8,f,c
  2977  001756                     u3230:
  2978  001756  2EE8               	decfsz	wreg,f,c
  2979  001758  D7F9               	goto	u3235
  2980  00175A  0E01               	movlw	1
  2981  00175C  1468               	andwf	??_atan2f+8,w,c
  2982  00175E  6E6C               	movwf	(??_atan2f+12)& (0+255),c
  2983  001760  0E00               	movlw	0
  2984  001762  1469               	andwf	??_atan2f+9,w,c
  2985  001764  6E6D               	movwf	(??_atan2f+13)& (0+255),c
  2986  001766  0E00               	movlw	0
  2987  001768  146A               	andwf	??_atan2f+10,w,c
  2988  00176A  6E6E               	movwf	(??_atan2f+14)& (0+255),c
  2989  00176C  0E00               	movlw	0
  2990  00176E  146B               	andwf	??_atan2f+11,w,c
  2991  001770  6E6F               	movwf	(??_atan2f+15)& (0+255),c
  2992  001772  5064               	movf	??_atan2f+4,w,c
  2993  001774  106C               	iorwf	??_atan2f+12,w,c
  2994  001776  6FCE               	movwf	atan2f@m& (0+255),b
  2995  001778  5065               	movf	??_atan2f+5,w,c
  2996  00177A  106D               	iorwf	??_atan2f+13,w,c
  2997  00177C  6FCF               	movwf	(atan2f@m+1)& (0+255),b
  2998  00177E  5066               	movf	??_atan2f+6,w,c
  2999  001780  106E               	iorwf	??_atan2f+14,w,c
  3000  001782  6FD0               	movwf	(atan2f@m+2)& (0+255),b
  3001  001784  5067               	movf	??_atan2f+7,w,c
  3002  001786  106F               	iorwf	??_atan2f+15,w,c
  3003  001788  6FD1               	movwf	(atan2f@m+3)& (0+255),b
  3004                           
  3005                           ; BSR set to: 0
  3006  00178A  9FC9               	bcf	(atan2f@ix+3)& (0+255),7,b
  3007                           
  3008                           ; BSR set to: 0
  3009  00178C  9FCD               	bcf	(atan2f@iy+3)& (0+255),7,b
  3010  00178E  51CA               	movf	atan2f@iy& (0+255),w,b
  3011  001790  11CB               	iorwf	(atan2f@iy+1)& (0+255),w,b
  3012  001792  11CC               	iorwf	(atan2f@iy+2)& (0+255),w,b
  3013  001794  11CD               	iorwf	(atan2f@iy+3)& (0+255),w,b
  3014  001796  B4D8               	btfsc	status,2,c
  3015  001798  D01C               	goto	l3298
  3016  00179A  D03E               	goto	l3300
  3017  00179C                     l831:
  3018                           
  3019                           ; BSR set to: 0
  3020  00179C  C058  F058         	movff	atan2f@y,?_atan2f
  3021  0017A0  C059  F059         	movff	atan2f@y+1,?_atan2f+1
  3022  0017A4  C05A  F05A         	movff	atan2f@y+2,?_atan2f+2
  3023  0017A8  C05B  F05B         	movff	atan2f@y+3,?_atan2f+3
  3024  0017AC  0012               	return	
  3025  0017AE                     l3288:
  3026                           
  3027                           ; BSR set to: 0
  3028  0017AE  0EDB               	movlw	219
  3029  0017B0  6E58               	movwf	?_atan2f,c
  3030  0017B2  0E0F               	movlw	15
  3031  0017B4  6E59               	movwf	?_atan2f+1,c
  3032  0017B6  0E49               	movlw	73
  3033  0017B8  6E5A               	movwf	?_atan2f+2,c
  3034  0017BA  0E40               	movlw	64
  3035  0017BC  6E5B               	movwf	?_atan2f+3,c
  3036  0017BE  0012               	return	
  3037  0017C0                     l3292:
  3038                           
  3039                           ; BSR set to: 0
  3040  0017C0  0EDB               	movlw	219
  3041  0017C2  6E58               	movwf	?_atan2f,c
  3042  0017C4  0E0F               	movlw	15
  3043  0017C6  6E59               	movwf	?_atan2f+1,c
  3044  0017C8  0E49               	movlw	73
  3045  0017CA  6E5A               	movwf	?_atan2f+2,c
  3046  0017CC  0EC0               	movlw	192
  3047  0017CE  6E5B               	movwf	?_atan2f+3,c
  3048  0017D0  0012               	return	
  3049  0017D2                     l3298:
  3050                           
  3051                           ; BSR set to: 0
  3052  0017D2  C0CE  F060         	movff	atan2f@m,??_atan2f
  3053  0017D6  C0CF  F061         	movff	atan2f@m+1,??_atan2f+1
  3054  0017DA  C0D0  F062         	movff	atan2f@m+2,??_atan2f+2
  3055  0017DE  C0D1  F063         	movff	atan2f@m+3,??_atan2f+3
  3056                           
  3057                           ; Switch on 2 bytes has been partitioned into a top level switch of size 1, and 2 sub-sw
      +                          itches
  3058                           ; Switch size 1, requested type "simple"
  3059                           ; Number of cases is 1, Range of values is 0 to 0
  3060                           ; switch strategies available:
  3061                           ; Name         Instructions Cycles
  3062                           ; simple_byte            4     3 (average)
  3063                           ;	Chosen strategy is simple_byte
  3064  0017E2  5063               	movf	??_atan2f+3,w,c
  3065  0017E4  0A00               	xorlw	0	; case 0
  3066  0017E6  B4D8               	btfsc	status,2,c
  3067  0017E8  D013               	goto	l4146
  3068  0017EA  D016               	goto	l3300
  3069  0017EC                     l4144:
  3070                           
  3071                           ; BSR set to: 0
  3072                           ; Switch on 2 bytes has been partitioned into a top level switch of size 1, and 1 sub-sw
      +                          itches
  3073                           ; Switch size 1, requested type "simple"
  3074                           ; Number of cases is 1, Range of values is 0 to 0
  3075                           ; switch strategies available:
  3076                           ; Name         Instructions Cycles
  3077                           ; simple_byte            4     3 (average)
  3078                           ;	Chosen strategy is simple_byte
  3079  0017EC  5061               	movf	??_atan2f+1,w,c
  3080  0017EE  0A00               	xorlw	0	; case 0
  3081  0017F0  A4D8               	btfss	status,2,c
  3082  0017F2  D012               	goto	l3300
  3083                           
  3084                           ; BSR set to: 0
  3085                           ; Switch size 1, requested type "simple"
  3086                           ; Number of cases is 4, Range of values is 0 to 3
  3087                           ; switch strategies available:
  3088                           ; Name         Instructions Cycles
  3089                           ; simple_byte           13     7 (average)
  3090                           ;	Chosen strategy is simple_byte
  3091  0017F4  5060               	movf	??_atan2f,w,c
  3092  0017F6  0A00               	xorlw	0	; case 0
  3093  0017F8  B4D8               	btfsc	status,2,c
  3094  0017FA  D7D0               	goto	l831
  3095  0017FC  0A01               	xorlw	1	; case 1
  3096  0017FE  B4D8               	btfsc	status,2,c
  3097  001800  D7CD               	goto	l831
  3098  001802  0A03               	xorlw	3	; case 2
  3099  001804  B4D8               	btfsc	status,2,c
  3100  001806  D7D3               	goto	l3288
  3101  001808  0A01               	xorlw	1	; case 3
  3102  00180A  B4D8               	btfsc	status,2,c
  3103  00180C  D7D9               	goto	l3292
  3104  00180E  D004               	goto	l3300
  3105  001810                     l4146:
  3106                           
  3107                           ; BSR set to: 0
  3108                           ; Switch size 1, requested type "simple"
  3109                           ; Number of cases is 1, Range of values is 0 to 0
  3110                           ; switch strategies available:
  3111                           ; Name         Instructions Cycles
  3112                           ; simple_byte            4     3 (average)
  3113                           ;	Chosen strategy is simple_byte
  3114  001810  5062               	movf	??_atan2f+2,w,c
  3115  001812  0A00               	xorlw	0	; case 0
  3116  001814  B4D8               	btfsc	status,2,c
  3117  001816  D7EA               	goto	l4144
  3118  001818                     l3300:
  3119                           
  3120                           ; BSR set to: 0
  3121  001818  51C6               	movf	atan2f@ix& (0+255),w,b
  3122  00181A  11C7               	iorwf	(atan2f@ix+1)& (0+255),w,b
  3123  00181C  11C8               	iorwf	(atan2f@ix+2)& (0+255),w,b
  3124  00181E  11C9               	iorwf	(atan2f@ix+3)& (0+255),w,b
  3125  001820  A4D8               	btfss	status,2,c
  3126  001822  D014               	goto	l3310
  3127                           
  3128                           ; BSR set to: 0
  3129  001824  B1CE               	btfsc	atan2f@m& (0+255),0,b
  3130  001826  D009               	goto	l3306
  3131                           
  3132                           ; BSR set to: 0
  3133  001828  0EDB               	movlw	219
  3134  00182A  6E58               	movwf	?_atan2f,c
  3135  00182C  0E0F               	movlw	15
  3136  00182E  6E59               	movwf	?_atan2f+1,c
  3137  001830  0EC9               	movlw	201
  3138  001832  6E5A               	movwf	?_atan2f+2,c
  3139  001834  0E3F               	movlw	63
  3140  001836  6E5B               	movwf	?_atan2f+3,c
  3141  001838  0012               	return	
  3142  00183A                     l3306:
  3143                           
  3144                           ; BSR set to: 0
  3145  00183A  0EDB               	movlw	219
  3146  00183C  6E58               	movwf	?_atan2f,c
  3147  00183E  0E0F               	movlw	15
  3148  001840  6E59               	movwf	?_atan2f+1,c
  3149  001842  0EC9               	movlw	201
  3150  001844  6E5A               	movwf	?_atan2f+2,c
  3151  001846  0EBF               	movlw	191
  3152  001848  6E5B               	movwf	?_atan2f+3,c
  3153  00184A  0012               	return	
  3154  00184C                     l3310:
  3155                           
  3156                           ; BSR set to: 0
  3157  00184C  0E80               	movlw	128
  3158  00184E  19C8               	xorwf	(atan2f@ix+2)& (0+255),w,b
  3159  001850  E105               	bnz	u3271
  3160  001852  0E7F               	movlw	127
  3161  001854  19C9               	xorwf	(atan2f@ix+3)& (0+255),w,b
  3162  001856  11C6               	iorwf	atan2f@ix& (0+255),w,b
  3163  001858  11C7               	iorwf	(atan2f@ix+1)& (0+255),w,b
  3164  00185A  A4D8               	btfss	status,2,c
  3165  00185C                     u3271:
  3166  00185C  D099               	goto	l3356
  3167                           
  3168                           ; BSR set to: 0
  3169  00185E  0E80               	movlw	128
  3170  001860  19CC               	xorwf	(atan2f@iy+2)& (0+255),w,b
  3171  001862  E173               	bnz	l3354
  3172  001864  0E7F               	movlw	127
  3173  001866  19CD               	xorwf	(atan2f@iy+3)& (0+255),w,b
  3174  001868  11CA               	iorwf	atan2f@iy& (0+255),w,b
  3175  00186A  11CB               	iorwf	(atan2f@iy+1)& (0+255),w,b
  3176  00186C  B4D8               	btfsc	status,2,c
  3177  00186E  D025               	goto	l3334
  3178  001870  D06C               	goto	l3354
  3179  001872                     l3316:
  3180                           
  3181                           ; BSR set to: 0
  3182  001872  0EDB               	movlw	219
  3183  001874  6E58               	movwf	?_atan2f,c
  3184  001876  0E0F               	movlw	15
  3185  001878  6E59               	movwf	?_atan2f+1,c
  3186  00187A  0E49               	movlw	73
  3187  00187C  6E5A               	movwf	?_atan2f+2,c
  3188  00187E  0E3F               	movlw	63
  3189  001880  6E5B               	movwf	?_atan2f+3,c
  3190  001882  0012               	return	
  3191  001884                     l3320:
  3192                           
  3193                           ; BSR set to: 0
  3194  001884  0EDB               	movlw	219
  3195  001886  6E58               	movwf	?_atan2f,c
  3196  001888  0E0F               	movlw	15
  3197  00188A  6E59               	movwf	?_atan2f+1,c
  3198  00188C  0E49               	movlw	73
  3199  00188E  6E5A               	movwf	?_atan2f+2,c
  3200  001890  0EBF               	movlw	191
  3201  001892  6E5B               	movwf	?_atan2f+3,c
  3202  001894  0012               	return	
  3203  001896                     l3324:
  3204                           
  3205                           ; BSR set to: 0
  3206  001896  0EE4               	movlw	228
  3207  001898  6E58               	movwf	?_atan2f,c
  3208  00189A  0ECB               	movlw	203
  3209  00189C  6E59               	movwf	?_atan2f+1,c
  3210  00189E  0E16               	movlw	22
  3211  0018A0  6E5A               	movwf	?_atan2f+2,c
  3212  0018A2  0E40               	movlw	64
  3213  0018A4  6E5B               	movwf	?_atan2f+3,c
  3214  0018A6  0012               	return	
  3215  0018A8                     l3328:
  3216                           
  3217                           ; BSR set to: 0
  3218  0018A8  0EE4               	movlw	228
  3219  0018AA  6E58               	movwf	?_atan2f,c
  3220  0018AC  0ECB               	movlw	203
  3221  0018AE  6E59               	movwf	?_atan2f+1,c
  3222  0018B0  0E16               	movlw	22
  3223  0018B2  6E5A               	movwf	?_atan2f+2,c
  3224  0018B4  0EC0               	movlw	192
  3225  0018B6  6E5B               	movwf	?_atan2f+3,c
  3226  0018B8  0012               	return	
  3227  0018BA                     l3334:
  3228                           
  3229                           ; BSR set to: 0
  3230  0018BA  C0CE  F060         	movff	atan2f@m,??_atan2f
  3231  0018BE  C0CF  F061         	movff	atan2f@m+1,??_atan2f+1
  3232  0018C2  C0D0  F062         	movff	atan2f@m+2,??_atan2f+2
  3233  0018C6  C0D1  F063         	movff	atan2f@m+3,??_atan2f+3
  3234                           
  3235                           ; Switch on 2 bytes has been partitioned into a top level switch of size 1, and 2 sub-sw
      +                          itches
  3236                           ; Switch size 1, requested type "simple"
  3237                           ; Number of cases is 1, Range of values is 0 to 0
  3238                           ; switch strategies available:
  3239                           ; Name         Instructions Cycles
  3240                           ; simple_byte            4     3 (average)
  3241                           ;	Chosen strategy is simple_byte
  3242  0018CA  5063               	movf	??_atan2f+3,w,c
  3243  0018CC  0A00               	xorlw	0	; case 0
  3244  0018CE  B4D8               	btfsc	status,2,c
  3245  0018D0  D013               	goto	l4152
  3246  0018D2  D05E               	goto	l3356
  3247  0018D4                     l4150:
  3248                           
  3249                           ; BSR set to: 0
  3250                           ; Switch on 2 bytes has been partitioned into a top level switch of size 1, and 1 sub-sw
      +                          itches
  3251                           ; Switch size 1, requested type "simple"
  3252                           ; Number of cases is 1, Range of values is 0 to 0
  3253                           ; switch strategies available:
  3254                           ; Name         Instructions Cycles
  3255                           ; simple_byte            4     3 (average)
  3256                           ;	Chosen strategy is simple_byte
  3257  0018D4  5061               	movf	??_atan2f+1,w,c
  3258  0018D6  0A00               	xorlw	0	; case 0
  3259  0018D8  A4D8               	btfss	status,2,c
  3260  0018DA  D05A               	goto	l3356
  3261                           
  3262                           ; BSR set to: 0
  3263                           ; Switch size 1, requested type "simple"
  3264                           ; Number of cases is 4, Range of values is 0 to 3
  3265                           ; switch strategies available:
  3266                           ; Name         Instructions Cycles
  3267                           ; simple_byte           13     7 (average)
  3268                           ;	Chosen strategy is simple_byte
  3269  0018DC  5060               	movf	??_atan2f,w,c
  3270  0018DE  0A00               	xorlw	0	; case 0
  3271  0018E0  B4D8               	btfsc	status,2,c
  3272  0018E2  D7C7               	goto	l3316
  3273  0018E4  0A01               	xorlw	1	; case 1
  3274  0018E6  B4D8               	btfsc	status,2,c
  3275  0018E8  D7CD               	goto	l3320
  3276  0018EA  0A03               	xorlw	3	; case 2
  3277  0018EC  B4D8               	btfsc	status,2,c
  3278  0018EE  D7D3               	goto	l3324
  3279  0018F0  0A01               	xorlw	1	; case 3
  3280  0018F2  B4D8               	btfsc	status,2,c
  3281  0018F4  D7D9               	goto	l3328
  3282  0018F6  D04C               	goto	l3356
  3283  0018F8                     l4152:
  3284                           
  3285                           ; BSR set to: 0
  3286                           ; Switch size 1, requested type "simple"
  3287                           ; Number of cases is 1, Range of values is 0 to 0
  3288                           ; switch strategies available:
  3289                           ; Name         Instructions Cycles
  3290                           ; simple_byte            4     3 (average)
  3291                           ;	Chosen strategy is simple_byte
  3292  0018F8  5062               	movf	??_atan2f+2,w,c
  3293  0018FA  0A00               	xorlw	0	; case 0
  3294  0018FC  B4D8               	btfsc	status,2,c
  3295  0018FE  D7EA               	goto	l4150
  3296  001900  D047               	goto	l3356
  3297  001902                     l3336:
  3298                           
  3299                           ; BSR set to: 0
  3300  001902  0E00               	movlw	0
  3301  001904  6E58               	movwf	?_atan2f,c
  3302  001906  0E00               	movlw	0
  3303  001908  6E59               	movwf	?_atan2f+1,c
  3304  00190A  0E00               	movlw	0
  3305  00190C  6E5A               	movwf	?_atan2f+2,c
  3306  00190E  0E00               	movlw	0
  3307  001910  6E5B               	movwf	?_atan2f+3,c
  3308  001912  0012               	return	
  3309  001914                     l3340:
  3310                           
  3311                           ; BSR set to: 0
  3312  001914  0E00               	movlw	0
  3313  001916  6E58               	movwf	?_atan2f,c
  3314  001918  0E00               	movlw	0
  3315  00191A  6E59               	movwf	?_atan2f+1,c
  3316  00191C  0E00               	movlw	0
  3317  00191E  6E5A               	movwf	?_atan2f+2,c
  3318  001920  0E80               	movlw	128
  3319  001922  6E5B               	movwf	?_atan2f+3,c
  3320  001924  0012               	return	
  3321  001926                     l3344:
  3322                           
  3323                           ; BSR set to: 0
  3324  001926  0EDB               	movlw	219
  3325  001928  6E58               	movwf	?_atan2f,c
  3326  00192A  0E0F               	movlw	15
  3327  00192C  6E59               	movwf	?_atan2f+1,c
  3328  00192E  0E49               	movlw	73
  3329  001930  6E5A               	movwf	?_atan2f+2,c
  3330  001932  0E40               	movlw	64
  3331  001934  6E5B               	movwf	?_atan2f+3,c
  3332  001936  0012               	return	
  3333  001938                     l3348:
  3334                           
  3335                           ; BSR set to: 0
  3336  001938  0EDB               	movlw	219
  3337  00193A  6E58               	movwf	?_atan2f,c
  3338  00193C  0E0F               	movlw	15
  3339  00193E  6E59               	movwf	?_atan2f+1,c
  3340  001940  0E49               	movlw	73
  3341  001942  6E5A               	movwf	?_atan2f+2,c
  3342  001944  0EC0               	movlw	192
  3343  001946  6E5B               	movwf	?_atan2f+3,c
  3344  001948  0012               	return	
  3345  00194A                     l3354:
  3346                           
  3347                           ; BSR set to: 0
  3348  00194A  C0CE  F060         	movff	atan2f@m,??_atan2f
  3349  00194E  C0CF  F061         	movff	atan2f@m+1,??_atan2f+1
  3350  001952  C0D0  F062         	movff	atan2f@m+2,??_atan2f+2
  3351  001956  C0D1  F063         	movff	atan2f@m+3,??_atan2f+3
  3352                           
  3353                           ; Switch on 2 bytes has been partitioned into a top level switch of size 1, and 2 sub-sw
      +                          itches
  3354                           ; Switch size 1, requested type "simple"
  3355                           ; Number of cases is 1, Range of values is 0 to 0
  3356                           ; switch strategies available:
  3357                           ; Name         Instructions Cycles
  3358                           ; simple_byte            4     3 (average)
  3359                           ;	Chosen strategy is simple_byte
  3360  00195A  5063               	movf	??_atan2f+3,w,c
  3361  00195C  0A00               	xorlw	0	; case 0
  3362  00195E  B4D8               	btfsc	status,2,c
  3363  001960  D013               	goto	l4158
  3364  001962  D016               	goto	l3356
  3365  001964                     l4156:
  3366                           
  3367                           ; BSR set to: 0
  3368                           ; Switch on 2 bytes has been partitioned into a top level switch of size 1, and 1 sub-sw
      +                          itches
  3369                           ; Switch size 1, requested type "simple"
  3370                           ; Number of cases is 1, Range of values is 0 to 0
  3371                           ; switch strategies available:
  3372                           ; Name         Instructions Cycles
  3373                           ; simple_byte            4     3 (average)
  3374                           ;	Chosen strategy is simple_byte
  3375  001964  5061               	movf	??_atan2f+1,w,c
  3376  001966  0A00               	xorlw	0	; case 0
  3377  001968  A4D8               	btfss	status,2,c
  3378  00196A  D012               	goto	l3356
  3379                           
  3380                           ; BSR set to: 0
  3381                           ; Switch size 1, requested type "simple"
  3382                           ; Number of cases is 4, Range of values is 0 to 3
  3383                           ; switch strategies available:
  3384                           ; Name         Instructions Cycles
  3385                           ; simple_byte           13     7 (average)
  3386                           ;	Chosen strategy is simple_byte
  3387  00196C  5060               	movf	??_atan2f,w,c
  3388  00196E  0A00               	xorlw	0	; case 0
  3389  001970  B4D8               	btfsc	status,2,c
  3390  001972  D7C7               	goto	l3336
  3391  001974  0A01               	xorlw	1	; case 1
  3392  001976  B4D8               	btfsc	status,2,c
  3393  001978  D7CD               	goto	l3340
  3394  00197A  0A03               	xorlw	3	; case 2
  3395  00197C  B4D8               	btfsc	status,2,c
  3396  00197E  D7D3               	goto	l3344
  3397  001980  0A01               	xorlw	1	; case 3
  3398  001982  B4D8               	btfsc	status,2,c
  3399  001984  D7D9               	goto	l3348
  3400  001986  D004               	goto	l3356
  3401  001988                     l4158:
  3402                           
  3403                           ; BSR set to: 0
  3404                           ; Switch size 1, requested type "simple"
  3405                           ; Number of cases is 1, Range of values is 0 to 0
  3406                           ; switch strategies available:
  3407                           ; Name         Instructions Cycles
  3408                           ; simple_byte            4     3 (average)
  3409                           ;	Chosen strategy is simple_byte
  3410  001988  5062               	movf	??_atan2f+2,w,c
  3411  00198A  0A00               	xorlw	0	; case 0
  3412  00198C  B4D8               	btfsc	status,2,c
  3413  00198E  D7EA               	goto	l4156
  3414  001990                     l3356:
  3415                           
  3416                           ; BSR set to: 0
  3417  001990  0E00               	movlw	0
  3418  001992  25C6               	addwf	atan2f@ix& (0+255),w,b
  3419  001994  6E60               	movwf	??_atan2f& (0+255),c
  3420  001996  0E00               	movlw	0
  3421  001998  21C7               	addwfc	(atan2f@ix+1)& (0+255),w,b
  3422  00199A  6E61               	movwf	(??_atan2f+1)& (0+255),c
  3423  00199C  0E00               	movlw	0
  3424  00199E  21C8               	addwfc	(atan2f@ix+2)& (0+255),w,b
  3425  0019A0  6E62               	movwf	(??_atan2f+2)& (0+255),c
  3426  0019A2  0E0D               	movlw	13
  3427  0019A4  21C9               	addwfc	(atan2f@ix+3)& (0+255),w,b
  3428  0019A6  6E63               	movwf	(??_atan2f+3)& (0+255),c
  3429  0019A8  51CA               	movf	atan2f@iy& (0+255),w,b
  3430  0019AA  5C60               	subwf	??_atan2f,w,c
  3431  0019AC  51CB               	movf	(atan2f@iy+1)& (0+255),w,b
  3432  0019AE  5861               	subwfb	??_atan2f+1,w,c
  3433  0019B0  51CC               	movf	(atan2f@iy+2)& (0+255),w,b
  3434  0019B2  5862               	subwfb	??_atan2f+2,w,c
  3435  0019B4  51CD               	movf	(atan2f@iy+3)& (0+255),w,b
  3436  0019B6  5863               	subwfb	??_atan2f+3,w,c
  3437  0019B8  A0D8               	btfss	status,0,c
  3438  0019BA  D009               	goto	u3300
  3439                           
  3440                           ; BSR set to: 0
  3441  0019BC  0E80               	movlw	128
  3442  0019BE  19CC               	xorwf	(atan2f@iy+2)& (0+255),w,b
  3443  0019C0  E11A               	bnz	l855
  3444  0019C2  0E7F               	movlw	127
  3445  0019C4  19CD               	xorwf	(atan2f@iy+3)& (0+255),w,b
  3446  0019C6  11CA               	iorwf	atan2f@iy& (0+255),w,b
  3447  0019C8  11CB               	iorwf	(atan2f@iy+1)& (0+255),w,b
  3448  0019CA  A4D8               	btfss	status,2,c
  3449  0019CC  D014               	goto	l855
  3450  0019CE                     u3300:
  3451                           
  3452                           ; BSR set to: 0
  3453  0019CE  B1CE               	btfsc	atan2f@m& (0+255),0,b
  3454  0019D0  D009               	goto	l3362
  3455                           
  3456                           ; BSR set to: 0
  3457  0019D2  0EDB               	movlw	219
  3458  0019D4  6E58               	movwf	?_atan2f,c
  3459  0019D6  0E0F               	movlw	15
  3460  0019D8  6E59               	movwf	?_atan2f+1,c
  3461  0019DA  0EC9               	movlw	201
  3462  0019DC  6E5A               	movwf	?_atan2f+2,c
  3463  0019DE  0E3F               	movlw	63
  3464  0019E0  6E5B               	movwf	?_atan2f+3,c
  3465  0019E2  0012               	return	
  3466  0019E4                     l3362:
  3467                           
  3468                           ; BSR set to: 0
  3469  0019E4  0EDB               	movlw	219
  3470  0019E6  6E58               	movwf	?_atan2f,c
  3471  0019E8  0E0F               	movlw	15
  3472  0019EA  6E59               	movwf	?_atan2f+1,c
  3473  0019EC  0EC9               	movlw	201
  3474  0019EE  6E5A               	movwf	?_atan2f+2,c
  3475  0019F0  0EBF               	movlw	191
  3476  0019F2  6E5B               	movwf	?_atan2f+3,c
  3477  0019F4  0012               	return	
  3478  0019F6                     l855:
  3479                           
  3480                           ; BSR set to: 0
  3481  0019F6  A3CE               	btfss	atan2f@m& (0+255),1,b
  3482  0019F8  D01F               	goto	l3370
  3483                           
  3484                           ; BSR set to: 0
  3485  0019FA  0E00               	movlw	0
  3486  0019FC  25CA               	addwf	atan2f@iy& (0+255),w,b
  3487  0019FE  6E60               	movwf	??_atan2f& (0+255),c
  3488  001A00  0E00               	movlw	0
  3489  001A02  21CB               	addwfc	(atan2f@iy+1)& (0+255),w,b
  3490  001A04  6E61               	movwf	(??_atan2f+1)& (0+255),c
  3491  001A06  0E00               	movlw	0
  3492  001A08  21CC               	addwfc	(atan2f@iy+2)& (0+255),w,b
  3493  001A0A  6E62               	movwf	(??_atan2f+2)& (0+255),c
  3494  001A0C  0E0D               	movlw	13
  3495  001A0E  21CD               	addwfc	(atan2f@iy+3)& (0+255),w,b
  3496  001A10  6E63               	movwf	(??_atan2f+3)& (0+255),c
  3497  001A12  51C6               	movf	atan2f@ix& (0+255),w,b
  3498  001A14  5C60               	subwf	??_atan2f,w,c
  3499  001A16  51C7               	movf	(atan2f@ix+1)& (0+255),w,b
  3500  001A18  5861               	subwfb	??_atan2f+1,w,c
  3501  001A1A  51C8               	movf	(atan2f@ix+2)& (0+255),w,b
  3502  001A1C  5862               	subwfb	??_atan2f+2,w,c
  3503  001A1E  51C9               	movf	(atan2f@ix+3)& (0+255),w,b
  3504  001A20  5863               	subwfb	??_atan2f+3,w,c
  3505  001A22  B0D8               	btfsc	status,0,c
  3506  001A24  D009               	goto	l3370
  3507                           
  3508                           ; BSR set to: 0
  3509  001A26  0E00               	movlw	0
  3510  001A28  6FC2               	movwf	atan2f@z& (0+255),b
  3511  001A2A  0E00               	movlw	0
  3512  001A2C  6FC3               	movwf	(atan2f@z+1)& (0+255),b
  3513  001A2E  0E00               	movlw	0
  3514  001A30  6FC4               	movwf	(atan2f@z+2)& (0+255),b
  3515  001A32  0E00               	movlw	0
  3516  001A34  6FC5               	movwf	(atan2f@z+3)& (0+255),b
  3517  001A36  D0BD               	goto	l3388
  3518  001A38                     l3370:
  3519                           
  3520                           ; BSR set to: 0
  3521  001A38  C058  F02F         	movff	atan2f@y,___fldiv@b
  3522  001A3C  C059  F030         	movff	atan2f@y+1,___fldiv@b+1
  3523  001A40  C05A  F031         	movff	atan2f@y+2,___fldiv@b+2
  3524  001A44  C05B  F032         	movff	atan2f@y+3,___fldiv@b+3
  3525  001A48  C05C  F033         	movff	atan2f@x,___fldiv@a
  3526  001A4C  C05D  F034         	movff	atan2f@x+1,___fldiv@a+1
  3527  001A50  C05E  F035         	movff	atan2f@x+2,___fldiv@a+2
  3528  001A54  C05F  F036         	movff	atan2f@x+3,___fldiv@a+3
  3529  001A58  EC3C  F013         	call	___fldiv	;wreg free
  3530  001A5C  C02F  F048         	movff	?___fldiv,fabsf@x
  3531  001A60  C030  F049         	movff	?___fldiv+1,fabsf@x+1
  3532  001A64  C031  F04A         	movff	?___fldiv+2,fabsf@x+2
  3533  001A68  C032  F04B         	movff	?___fldiv+3,fabsf@x+3
  3534  001A6C  EC70  F018         	call	_fabsf	;wreg free
  3535  001A70  C048  F0B2         	movff	?_fabsf,_atan2f$1013
  3536  001A74  C049  F0B3         	movff	?_fabsf+1,_atan2f$1013+1
  3537  001A78  C04A  F0B4         	movff	?_fabsf+2,_atan2f$1013+2
  3538  001A7C  C04B  F0B5         	movff	?_fabsf+3,_atan2f$1013+3
  3539  001A80  C0B2  F050         	movff	_atan2f$1013,atanf@x
  3540  001A84  C0B3  F051         	movff	_atan2f$1013+1,atanf@x+1
  3541  001A88  C0B4  F052         	movff	_atan2f$1013+2,atanf@x+2
  3542  001A8C  C0B5  F053         	movff	_atan2f$1013+3,atanf@x+3
  3543  001A90  EC4F  F007         	call	_atanf	;wreg free
  3544  001A94  C050  F0C2         	movff	?_atanf,atan2f@z
  3545  001A98  C051  F0C3         	movff	?_atanf+1,atan2f@z+1
  3546  001A9C  C052  F0C4         	movff	?_atanf+2,atan2f@z+2
  3547  001AA0  C053  F0C5         	movff	?_atanf+3,atan2f@z+3
  3548  001AA4  D086               	goto	l3388
  3549  001AA6                     l865:
  3550  001AA6  C0C2  F058         	movff	atan2f@z,?_atan2f
  3551  001AAA  C0C3  F059         	movff	atan2f@z+1,?_atan2f+1
  3552  001AAE  C0C4  F05A         	movff	atan2f@z+2,?_atan2f+2
  3553  001AB2  C0C5  F05B         	movff	atan2f@z+3,?_atan2f+3
  3554  001AB6  0012               	return	
  3555  001AB8                     l3374:
  3556  001AB8  C0C2  F001         	movff	atan2f@z,___flneg@f1
  3557  001ABC  C0C3  F002         	movff	atan2f@z+1,___flneg@f1+1
  3558  001AC0  C0C4  F003         	movff	atan2f@z+2,___flneg@f1+2
  3559  001AC4  C0C5  F004         	movff	atan2f@z+3,___flneg@f1+3
  3560  001AC8  EC8A  F018         	call	___flneg	;wreg free
  3561  001ACC  C001  F058         	movff	?___flneg,?_atan2f
  3562  001AD0  C002  F059         	movff	?___flneg+1,?_atan2f+1
  3563  001AD4  C003  F05A         	movff	?___flneg+2,?_atan2f+2
  3564  001AD8  C004  F05B         	movff	?___flneg+3,?_atan2f+3
  3565  001ADC  0012               	return	
  3566  001ADE                     l3378:
  3567  001ADE  0E2E               	movlw	46
  3568  001AE0  6E23               	movwf	___fladd@a,c
  3569  001AE2  0EBD               	movlw	189
  3570  001AE4  6E24               	movwf	___fladd@a+1,c
  3571  001AE6  0EBB               	movlw	187
  3572  001AE8  6E25               	movwf	___fladd@a+2,c
  3573  001AEA  0E33               	movlw	51
  3574  001AEC  6E26               	movwf	___fladd@a+3,c
  3575  001AEE  C0C2  F01F         	movff	atan2f@z,___fladd@b
  3576  001AF2  C0C3  F020         	movff	atan2f@z+1,___fladd@b+1
  3577  001AF6  C0C4  F021         	movff	atan2f@z+2,___fladd@b+2
  3578  001AFA  C0C5  F022         	movff	atan2f@z+3,___fladd@b+3
  3579  001AFE  ECB6  F011         	call	___fladd	;wreg free
  3580  001B02  C01F  F0B6         	movff	?___fladd,_atan2f$1014
  3581  001B06  C020  F0B7         	movff	?___fladd+1,_atan2f$1014+1
  3582  001B0A  C021  F0B8         	movff	?___fladd+2,_atan2f$1014+2
  3583  001B0E  C022  F0B9         	movff	?___fladd+3,_atan2f$1014+3
  3584  001B12  0EDB               	movlw	219
  3585  001B14  6E2F               	movwf	___flsub@b,c
  3586  001B16  0E0F               	movlw	15
  3587  001B18  6E30               	movwf	___flsub@b+1,c
  3588  001B1A  0E49               	movlw	73
  3589  001B1C  6E31               	movwf	___flsub@b+2,c
  3590  001B1E  0E40               	movlw	64
  3591  001B20  6E32               	movwf	___flsub@b+3,c
  3592  001B22  C0B6  F033         	movff	_atan2f$1014,___flsub@a
  3593  001B26  C0B7  F034         	movff	_atan2f$1014+1,___flsub@a+1
  3594  001B2A  C0B8  F035         	movff	_atan2f$1014+2,___flsub@a+2
  3595  001B2E  C0B9  F036         	movff	_atan2f$1014+3,___flsub@a+3
  3596  001B32  EC32  F018         	call	___flsub	;wreg free
  3597  001B36  C02F  F058         	movff	?___flsub,?_atan2f
  3598  001B3A  C030  F059         	movff	?___flsub+1,?_atan2f+1
  3599  001B3E  C031  F05A         	movff	?___flsub+2,?_atan2f+2
  3600  001B42  C032  F05B         	movff	?___flsub+3,?_atan2f+3
  3601  001B46  0012               	return	
  3602  001B48                     l3382:
  3603  001B48  0E2E               	movlw	46
  3604  001B4A  6E23               	movwf	___fladd@a,c
  3605  001B4C  0EBD               	movlw	189
  3606  001B4E  6E24               	movwf	___fladd@a+1,c
  3607  001B50  0EBB               	movlw	187
  3608  001B52  6E25               	movwf	___fladd@a+2,c
  3609  001B54  0E33               	movlw	51
  3610  001B56  6E26               	movwf	___fladd@a+3,c
  3611  001B58  C0C2  F01F         	movff	atan2f@z,___fladd@b
  3612  001B5C  C0C3  F020         	movff	atan2f@z+1,___fladd@b+1
  3613  001B60  C0C4  F021         	movff	atan2f@z+2,___fladd@b+2
  3614  001B64  C0C5  F022         	movff	atan2f@z+3,___fladd@b+3
  3615  001B68  ECB6  F011         	call	___fladd	;wreg free
  3616  001B6C  C01F  F0BA         	movff	?___fladd,_atan2f$1015
  3617  001B70  C020  F0BB         	movff	?___fladd+1,_atan2f$1015+1
  3618  001B74  C021  F0BC         	movff	?___fladd+2,_atan2f$1015+2
  3619  001B78  C022  F0BD         	movff	?___fladd+3,_atan2f$1015+3
  3620  001B7C  C0BA  F01F         	movff	_atan2f$1015,___fladd@b
  3621  001B80  C0BB  F020         	movff	_atan2f$1015+1,___fladd@b+1
  3622  001B84  C0BC  F021         	movff	_atan2f$1015+2,___fladd@b+2
  3623  001B88  C0BD  F022         	movff	_atan2f$1015+3,___fladd@b+3
  3624  001B8C  0EDB               	movlw	219
  3625  001B8E  6E23               	movwf	___fladd@a,c
  3626  001B90  0E0F               	movlw	15
  3627  001B92  6E24               	movwf	___fladd@a+1,c
  3628  001B94  0E49               	movlw	73
  3629  001B96  6E25               	movwf	___fladd@a+2,c
  3630  001B98  0EC0               	movlw	192
  3631  001B9A  6E26               	movwf	___fladd@a+3,c
  3632  001B9C  ECB6  F011         	call	___fladd	;wreg free
  3633  001BA0  C01F  F058         	movff	?___fladd,?_atan2f
  3634  001BA4  C020  F059         	movff	?___fladd+1,?_atan2f+1
  3635  001BA8  C021  F05A         	movff	?___fladd+2,?_atan2f+2
  3636  001BAC  C022  F05B         	movff	?___fladd+3,?_atan2f+3
  3637  001BB0  0012               	return	
  3638  001BB2                     l3388:
  3639  001BB2  C0CE  F060         	movff	atan2f@m,??_atan2f
  3640  001BB6  C0CF  F061         	movff	atan2f@m+1,??_atan2f+1
  3641  001BBA  C0D0  F062         	movff	atan2f@m+2,??_atan2f+2
  3642  001BBE  C0D1  F063         	movff	atan2f@m+3,??_atan2f+3
  3643                           
  3644                           ; Switch on 2 bytes has been partitioned into a top level switch of size 1, and 2 sub-sw
      +                          itches
  3645                           ; Switch size 1, requested type "simple"
  3646                           ; Number of cases is 1, Range of values is 0 to 0
  3647                           ; switch strategies available:
  3648                           ; Name         Instructions Cycles
  3649                           ; simple_byte            4     3 (average)
  3650                           ;	Chosen strategy is simple_byte
  3651  001BC2  5063               	movf	??_atan2f+3,w,c
  3652  001BC4  0A00               	xorlw	0	; case 0
  3653  001BC6  B4D8               	btfsc	status,2,c
  3654  001BC8  D010               	goto	l4164
  3655  001BCA  D7BE               	goto	l3382
  3656  001BCC                     l4162:
  3657                           
  3658                           ; Switch on 2 bytes has been partitioned into a top level switch of size 1, and 1 sub-sw
      +                          itches
  3659                           ; Switch size 1, requested type "simple"
  3660                           ; Number of cases is 1, Range of values is 0 to 0
  3661                           ; switch strategies available:
  3662                           ; Name         Instructions Cycles
  3663                           ; simple_byte            4     3 (average)
  3664                           ;	Chosen strategy is simple_byte
  3665  001BCC  5061               	movf	??_atan2f+1,w,c
  3666  001BCE  0A00               	xorlw	0	; case 0
  3667  001BD0  A4D8               	btfss	status,2,c
  3668  001BD2  D7BA               	goto	l3382
  3669                           
  3670                           ; Switch size 1, requested type "simple"
  3671                           ; Number of cases is 3, Range of values is 0 to 2
  3672                           ; switch strategies available:
  3673                           ; Name         Instructions Cycles
  3674                           ; simple_byte           10     6 (average)
  3675                           ;	Chosen strategy is simple_byte
  3676  001BD4  5060               	movf	??_atan2f,w,c
  3677  001BD6  0A00               	xorlw	0	; case 0
  3678  001BD8  B4D8               	btfsc	status,2,c
  3679  001BDA  D765               	goto	l865
  3680  001BDC  0A01               	xorlw	1	; case 1
  3681  001BDE  B4D8               	btfsc	status,2,c
  3682  001BE0  D76B               	goto	l3374
  3683  001BE2  0A03               	xorlw	3	; case 2
  3684  001BE4  B4D8               	btfsc	status,2,c
  3685  001BE6  D77B               	goto	l3378
  3686  001BE8  D7AF               	goto	l3382
  3687  001BEA                     l4164:
  3688                           
  3689                           ; Switch size 1, requested type "simple"
  3690                           ; Number of cases is 1, Range of values is 0 to 0
  3691                           ; switch strategies available:
  3692                           ; Name         Instructions Cycles
  3693                           ; simple_byte            4     3 (average)
  3694                           ;	Chosen strategy is simple_byte
  3695  001BEA  5062               	movf	??_atan2f+2,w,c
  3696  001BEC  0A00               	xorlw	0	; case 0
  3697  001BEE  B4D8               	btfsc	status,2,c
  3698  001BF0  D7ED               	goto	l4162
  3699  001BF2  D7AA               	goto	l3382
  3700  001BF4                     __end_of_atan2f:
  3701                           	opt callstack 0
  3702                           
  3703 ;; *************** function _atanf *****************
  3704 ;; Defined at:
  3705 ;;		line 41 in file "C:\Program Files (x86)\Microchip\xc8\v2.05\pic\sources\c99\common\atanf.c"
  3706 ;; Parameters:    Size  Location     Type
  3707 ;;  x               4   79[COMRAM] float 
  3708 ;; Auto vars:     Size  Location     Type
  3709 ;;  ix              4   46[BANK0 ] unsigned long 
  3710 ;;  z               4   42[BANK0 ] float 
  3711 ;;  w               4   36[BANK0 ] float 
  3712 ;;  sign            4   24[BANK0 ] unsigned long 
  3713 ;;  s2              4   20[BANK0 ] float 
  3714 ;;  s1              4   16[BANK0 ] float 
  3715 ;;  __xc8_float_    4    0[BANK0 ] struct .
  3716 ;;  id              2   40[BANK0 ] int 
  3717 ;; Return value:  Size  Location     Type
  3718 ;;                  4   79[COMRAM] float 
  3719 ;; Registers used:
  3720 ;;		wreg, status,2, status,0, tblptrl, tblptrh, tblptru, prodl, prodh, cstack
  3721 ;; Tracked objects:
  3722 ;;		On entry : 0/0
  3723 ;;		On exit  : 0/0
  3724 ;;		Unchanged: 0/0
  3725 ;; Data sizes:     COMRAM   BANK0   BANK1   BANK2   BANK3   BANK4   BANK5
  3726 ;;      Params:         4       0       0       0       0       0       0
  3727 ;;      Locals:         0      50       0       0       0       0       0
  3728 ;;      Temps:          4       0       0       0       0       0       0
  3729 ;;      Totals:         8      50       0       0       0       0       0
  3730 ;;Total ram usage:       58 bytes
  3731 ;; Hardware stack levels used:    1
  3732 ;; Hardware stack levels required when called:    2
  3733 ;; This function calls:
  3734 ;;		___fladd
  3735 ;;		___fldiv
  3736 ;;		___flmul
  3737 ;;		___flneg
  3738 ;;		___flsub
  3739 ;;		___fpclassifyf
  3740 ;;		_fabsf
  3741 ;; This function is called by:
  3742 ;;		_atan2f
  3743 ;; This function uses a non-reentrant model
  3744 ;;
  3745                           
  3746                           	psect	text11
  3747  000E9E                     __ptext11:
  3748                           	opt callstack 0
  3749  000E9E                     _atanf:
  3750                           	opt callstack 26
  3751                           
  3752                           ;incstack = 0
  3753  000E9E  C050  F080         	movff	atanf@x,atanf@__xc8_float_word
  3754  000EA2  C051  F081         	movff	atanf@x+1,atanf@__xc8_float_word+1
  3755  000EA6  C052  F082         	movff	atanf@x+2,atanf@__xc8_float_word+2
  3756  000EAA  C053  F083         	movff	atanf@x+3,atanf@__xc8_float_word+3
  3757  000EAE  C080  F0AE         	movff	atanf@__xc8_float_word,atanf@ix
  3758  000EB2  C081  F0AF         	movff	atanf@__xc8_float_word+1,atanf@ix+1
  3759  000EB6  C082  F0B0         	movff	atanf@__xc8_float_word+2,atanf@ix+2
  3760  000EBA  C083  F0B1         	movff	atanf@__xc8_float_word+3,atanf@ix+3
  3761  000EBE  C0AE  F054         	movff	atanf@ix,??_atanf
  3762  000EC2  C0AF  F055         	movff	atanf@ix+1,??_atanf+1
  3763  000EC6  C0B0  F056         	movff	atanf@ix+2,??_atanf+2
  3764  000ECA  C0B1  F057         	movff	atanf@ix+3,??_atanf+3
  3765  000ECE  0E20               	movlw	32
  3766  000ED0  D005               	goto	u3080
  3767  000ED2                     u3085:
  3768  000ED2  90D8               	bcf	status,0,c
  3769  000ED4  3257               	rrcf	??_atanf+3,f,c
  3770  000ED6  3256               	rrcf	??_atanf+2,f,c
  3771  000ED8  3255               	rrcf	??_atanf+1,f,c
  3772  000EDA  3254               	rrcf	??_atanf,f,c
  3773  000EDC                     u3080:
  3774  000EDC  2EE8               	decfsz	wreg,f,c
  3775  000EDE  D7F9               	goto	u3085
  3776  000EE0  C054  F098         	movff	??_atanf,atanf@sign
  3777  000EE4  C055  F099         	movff	??_atanf+1,atanf@sign+1
  3778  000EE8  C056  F09A         	movff	??_atanf+2,atanf@sign+2
  3779  000EEC  C057  F09B         	movff	??_atanf+3,atanf@sign+3
  3780  000EF0  0100               	movlb	0	; () banked
  3781  000EF2  9FB1               	bcf	(atanf@ix+3)& (0+255),7,b
  3782                           
  3783                           ; BSR set to: 0
  3784  000EF4  0E80               	movlw	128
  3785  000EF6  5DB0               	subwf	(atanf@ix+2)& (0+255),w,b
  3786  000EF8  0E4C               	movlw	76
  3787  000EFA  59B1               	subwfb	(atanf@ix+3)& (0+255),w,b
  3788  000EFC  A0D8               	btfss	status,0,c
  3789  000EFE  D05C               	goto	l3186
  3790                           
  3791                           ; BSR set to: 0
  3792  000F00  C050  F001         	movff	atanf@x,___fpclassifyf@x
  3793  000F04  C051  F002         	movff	atanf@x+1,___fpclassifyf@x+1
  3794  000F08  C052  F003         	movff	atanf@x+2,___fpclassifyf@x+2
  3795  000F0C  C053  F004         	movff	atanf@x+3,___fpclassifyf@x+3
  3796  000F10  EC72  F016         	call	___fpclassifyf	;wreg free
  3797  000F14  5001               	movf	?___fpclassifyf,w,c
  3798  000F16  1002               	iorwf	?___fpclassifyf+1,w,c
  3799  000F18  A4D8               	btfss	status,2,c
  3800  000F1A  D009               	goto	l3176
  3801  000F1C                     u3100:
  3802  000F1C  C050  F050         	movff	atanf@x,?_atanf
  3803  000F20  C051  F051         	movff	atanf@x+1,?_atanf+1
  3804  000F24  C052  F052         	movff	atanf@x+2,?_atanf+2
  3805  000F28  C053  F053         	movff	atanf@x+3,?_atanf+3
  3806  000F2C  0012               	return	
  3807  000F2E                     l3176:
  3808  000F2E  0E91               	movlw	low (_atanhi+12)
  3809  000F30  6EF6               	movwf	tblptrl,c
  3810  000F32  0E06               	movlw	high (_atanhi+12)
  3811  000F34  6EF7               	movwf	tblptrh,c
  3812  000F36                     	if	0	;tblptru may be non-zero
  3813  000F36                     	endif
  3814  000F36                     	if	0	;tblptru may be non-zero
  3815  000F36                     	endif
  3816  000F36  0009               	tblrd		*+
  3817  000F38  CFF5 F01F          	movff	tablat,___fladd@b
  3818  000F3C  0009               	tblrd		*+
  3819  000F3E  CFF5 F020          	movff	tablat,___fladd@b+1
  3820  000F42  0009               	tblrd		*+
  3821  000F44  CFF5 F021          	movff	tablat,___fladd@b+2
  3822  000F48  000A               	tblrd		*-
  3823  000F4A  CFF5 F022          	movff	tablat,___fladd@b+3
  3824  000F4E  0E00               	movlw	0
  3825  000F50  6E23               	movwf	___fladd@a,c
  3826  000F52  0E00               	movlw	0
  3827  000F54  6E24               	movwf	___fladd@a+1,c
  3828  000F56  0E80               	movlw	128
  3829  000F58  6E25               	movwf	___fladd@a+2,c
  3830  000F5A  0E03               	movlw	3
  3831  000F5C  6E26               	movwf	___fladd@a+3,c
  3832  000F5E  ECB6  F011         	call	___fladd	;wreg free
  3833  000F62  C01F  F0AA         	movff	?___fladd,atanf@z
  3834  000F66  C020  F0AB         	movff	?___fladd+1,atanf@z+1
  3835  000F6A  C021  F0AC         	movff	?___fladd+2,atanf@z+2
  3836  000F6E  C022  F0AD         	movff	?___fladd+3,atanf@z+3
  3837  000F72  0100               	movlb	0	; () banked
  3838  000F74  5198               	movf	atanf@sign& (0+255),w,b
  3839  000F76  1199               	iorwf	(atanf@sign+1)& (0+255),w,b
  3840  000F78  119A               	iorwf	(atanf@sign+2)& (0+255),w,b
  3841  000F7A  119B               	iorwf	(atanf@sign+3)& (0+255),w,b
  3842  000F7C  A4D8               	btfss	status,2,c
  3843  000F7E  D009               	goto	l3182
  3844  000F80                     u3110:
  3845                           
  3846                           ; BSR set to: 0
  3847  000F80  C0AA  F050         	movff	atanf@z,?_atanf
  3848  000F84  C0AB  F051         	movff	atanf@z+1,?_atanf+1
  3849  000F88  C0AC  F052         	movff	atanf@z+2,?_atanf+2
  3850  000F8C  C0AD  F053         	movff	atanf@z+3,?_atanf+3
  3851  000F90  0012               	return	
  3852  000F92                     l3182:
  3853                           
  3854                           ; BSR set to: 0
  3855  000F92  C0AA  F001         	movff	atanf@z,___flneg@f1
  3856  000F96  C0AB  F002         	movff	atanf@z+1,___flneg@f1+1
  3857  000F9A  C0AC  F003         	movff	atanf@z+2,___flneg@f1+2
  3858  000F9E  C0AD  F004         	movff	atanf@z+3,___flneg@f1+3
  3859  000FA2  EC8A  F018         	call	___flneg	;wreg free
  3860  000FA6  C001  F050         	movff	?___flneg,?_atanf
  3861  000FAA  C002  F051         	movff	?___flneg+1,?_atanf+1
  3862  000FAE  C003  F052         	movff	?___flneg+2,?_atanf+2
  3863  000FB2  C004  F053         	movff	?___flneg+3,?_atanf+3
  3864  000FB6  0012               	return	
  3865  000FB8                     l3186:
  3866                           
  3867                           ; BSR set to: 0
  3868  000FB8  0EE0               	movlw	224
  3869  000FBA  5DB0               	subwf	(atanf@ix+2)& (0+255),w,b
  3870  000FBC  0E3E               	movlw	62
  3871  000FBE  59B1               	subwfb	(atanf@ix+3)& (0+255),w,b
  3872  000FC0  B0D8               	btfsc	status,0,c
  3873  000FC2  D009               	goto	l3192
  3874                           
  3875                           ; BSR set to: 0
  3876  000FC4  0E80               	movlw	128
  3877  000FC6  5DB0               	subwf	(atanf@ix+2)& (0+255),w,b
  3878  000FC8  0E39               	movlw	57
  3879  000FCA  59B1               	subwfb	(atanf@ix+3)& (0+255),w,b
  3880  000FCC  A0D8               	btfss	status,0,c
  3881  000FCE  D7A6               	goto	u3100
  3882                           
  3883                           ; BSR set to: 0
  3884  000FD0  69A8               	setf	atanf@id& (0+255),b
  3885  000FD2  69A9               	setf	(atanf@id+1)& (0+255),b
  3886  000FD4  D118               	goto	l3216
  3887  000FD6                     l3192:
  3888                           
  3889                           ; BSR set to: 0
  3890  000FD6  C050  F048         	movff	atanf@x,fabsf@x
  3891  000FDA  C051  F049         	movff	atanf@x+1,fabsf@x+1
  3892  000FDE  C052  F04A         	movff	atanf@x+2,fabsf@x+2
  3893  000FE2  C053  F04B         	movff	atanf@x+3,fabsf@x+3
  3894  000FE6  EC70  F018         	call	_fabsf	;wreg free
  3895  000FEA  C048  F050         	movff	?_fabsf,atanf@x
  3896  000FEE  C049  F051         	movff	?_fabsf+1,atanf@x+1
  3897  000FF2  C04A  F052         	movff	?_fabsf+2,atanf@x+2
  3898  000FF6  C04B  F053         	movff	?_fabsf+3,atanf@x+3
  3899  000FFA  0E98               	movlw	152
  3900  000FFC  0100               	movlb	0	; () banked
  3901  000FFE  5DB0               	subwf	(atanf@ix+2)& (0+255),w,b
  3902  001000  0E3F               	movlw	63
  3903  001002  59B1               	subwfb	(atanf@ix+3)& (0+255),w,b
  3904  001004  B0D8               	btfsc	status,0,c
  3905  001006  D08E               	goto	l3206
  3906                           
  3907                           ; BSR set to: 0
  3908  001008  0E30               	movlw	48
  3909  00100A  5DB0               	subwf	(atanf@ix+2)& (0+255),w,b
  3910  00100C  0E3F               	movlw	63
  3911  00100E  59B1               	subwfb	(atanf@ix+3)& (0+255),w,b
  3912  001010  B0D8               	btfsc	status,0,c
  3913  001012  D04D               	goto	l3202
  3914                           
  3915                           ; BSR set to: 0
  3916  001014  0E00               	movlw	0
  3917  001016  6FA9               	movwf	(atanf@id+1)& (0+255),b
  3918  001018  0E00               	movlw	0
  3919  00101A  6FA8               	movwf	atanf@id& (0+255),b
  3920                           
  3921                           ; BSR set to: 0
  3922  00101C  0E00               	movlw	0
  3923  00101E  6E23               	movwf	___fladd@a,c
  3924  001020  0E00               	movlw	0
  3925  001022  6E24               	movwf	___fladd@a+1,c
  3926  001024  0E80               	movlw	128
  3927  001026  6E25               	movwf	___fladd@a+2,c
  3928  001028  0EBF               	movlw	191
  3929  00102A  6E26               	movwf	___fladd@a+3,c
  3930  00102C  0E00               	movlw	0
  3931  00102E  6E05               	movwf	___flmul@a,c
  3932  001030  0E00               	movlw	0
  3933  001032  6E06               	movwf	___flmul@a+1,c
  3934  001034  0E00               	movlw	0
  3935  001036  6E07               	movwf	___flmul@a+2,c
  3936  001038  0E40               	movlw	64
  3937  00103A  6E08               	movwf	___flmul@a+3,c
  3938  00103C  C050  F001         	movff	atanf@x,___flmul@b
  3939  001040  C051  F002         	movff	atanf@x+1,___flmul@b+1
  3940  001044  C052  F003         	movff	atanf@x+2,___flmul@b+2
  3941  001048  C053  F004         	movff	atanf@x+3,___flmul@b+3
  3942  00104C  EC0D  F010         	call	___flmul	;wreg free
  3943  001050  C001  F01F         	movff	?___flmul,___fladd@b
  3944  001054  C002  F020         	movff	?___flmul+1,___fladd@b+1
  3945  001058  C003  F021         	movff	?___flmul+2,___fladd@b+2
  3946  00105C  C004  F022         	movff	?___flmul+3,___fladd@b+3
  3947  001060  ECB6  F011         	call	___fladd	;wreg free
  3948  001064  C01F  F02F         	movff	?___fladd,___fldiv@b
  3949  001068  C020  F030         	movff	?___fladd+1,___fldiv@b+1
  3950  00106C  C021  F031         	movff	?___fladd+2,___fldiv@b+2
  3951  001070  C022  F032         	movff	?___fladd+3,___fldiv@b+3
  3952  001074  0E00               	movlw	0
  3953  001076  6E23               	movwf	___fladd@a,c
  3954  001078  0E00               	movlw	0
  3955  00107A  6E24               	movwf	___fladd@a+1,c
  3956  00107C  0E00               	movlw	0
  3957  00107E  6E25               	movwf	___fladd@a+2,c
  3958  001080  0E40               	movlw	64
  3959  001082  6E26               	movwf	___fladd@a+3,c
  3960  001084  C050  F01F         	movff	atanf@x,___fladd@b
  3961  001088  C051  F020         	movff	atanf@x+1,___fladd@b+1
  3962  00108C  C052  F021         	movff	atanf@x+2,___fladd@b+2
  3963  001090  C053  F022         	movff	atanf@x+3,___fladd@b+3
  3964  001094  ECB6  F011         	call	___fladd	;wreg free
  3965  001098  C01F  F033         	movff	?___fladd,___fldiv@a
  3966  00109C  C020  F034         	movff	?___fladd+1,___fldiv@a+1
  3967  0010A0  C021  F035         	movff	?___fladd+2,___fldiv@a+2
  3968  0010A4  C022  F036         	movff	?___fladd+3,___fldiv@a+3
  3969  0010A8  EC3C  F013         	call	___fldiv	;wreg free
  3970  0010AC  D0A4               	goto	L2
  3971  0010AE                     l3202:
  3972                           
  3973                           ; BSR set to: 0
  3974  0010AE  0E00               	movlw	0
  3975  0010B0  6FA9               	movwf	(atanf@id+1)& (0+255),b
  3976  0010B2  0E01               	movlw	1
  3977  0010B4  6FA8               	movwf	atanf@id& (0+255),b
  3978                           
  3979                           ; BSR set to: 0
  3980  0010B6  0E00               	movlw	0
  3981  0010B8  6E23               	movwf	___fladd@a,c
  3982  0010BA  0E00               	movlw	0
  3983  0010BC  6E24               	movwf	___fladd@a+1,c
  3984  0010BE  0E80               	movlw	128
  3985  0010C0  6E25               	movwf	___fladd@a+2,c
  3986  0010C2  0EBF               	movlw	191
  3987  0010C4  6E26               	movwf	___fladd@a+3,c
  3988  0010C6  C050  F01F         	movff	atanf@x,___fladd@b
  3989  0010CA  C051  F020         	movff	atanf@x+1,___fladd@b+1
  3990  0010CE  C052  F021         	movff	atanf@x+2,___fladd@b+2
  3991  0010D2  C053  F022         	movff	atanf@x+3,___fladd@b+3
  3992  0010D6  ECB6  F011         	call	___fladd	;wreg free
  3993  0010DA  C01F  F02F         	movff	?___fladd,___fldiv@b
  3994  0010DE  C020  F030         	movff	?___fladd+1,___fldiv@b+1
  3995  0010E2  C021  F031         	movff	?___fladd+2,___fldiv@b+2
  3996  0010E6  C022  F032         	movff	?___fladd+3,___fldiv@b+3
  3997  0010EA  0E00               	movlw	0
  3998  0010EC  6E23               	movwf	___fladd@a,c
  3999  0010EE  0E00               	movlw	0
  4000  0010F0  6E24               	movwf	___fladd@a+1,c
  4001  0010F2  0E80               	movlw	128
  4002  0010F4  6E25               	movwf	___fladd@a+2,c
  4003  0010F6  0E3F               	movlw	63
  4004  0010F8  6E26               	movwf	___fladd@a+3,c
  4005  0010FA  C050  F01F         	movff	atanf@x,___fladd@b
  4006  0010FE  C051  F020         	movff	atanf@x+1,___fladd@b+1
  4007  001102  C052  F021         	movff	atanf@x+2,___fladd@b+2
  4008  001106  C053  F022         	movff	atanf@x+3,___fladd@b+3
  4009  00110A  ECB6  F011         	call	___fladd	;wreg free
  4010  00110E  C01F  F033         	movff	?___fladd,___fldiv@a
  4011  001112  C020  F034         	movff	?___fladd+1,___fldiv@a+1
  4012  001116  C021  F035         	movff	?___fladd+2,___fldiv@a+2
  4013  00111A  C022  F036         	movff	?___fladd+3,___fldiv@a+3
  4014  00111E  EC3C  F013         	call	___fldiv	;wreg free
  4015  001122  D069               	goto	L2
  4016  001124                     l3206:
  4017                           
  4018                           ; BSR set to: 0
  4019  001124  0E1C               	movlw	28
  4020  001126  5DB0               	subwf	(atanf@ix+2)& (0+255),w,b
  4021  001128  0E40               	movlw	64
  4022  00112A  59B1               	subwfb	(atanf@ix+3)& (0+255),w,b
  4023  00112C  B0D8               	btfsc	status,0,c
  4024  00112E  D04D               	goto	l3212
  4025                           
  4026                           ; BSR set to: 0
  4027  001130  0E00               	movlw	0
  4028  001132  6FA9               	movwf	(atanf@id+1)& (0+255),b
  4029  001134  0E02               	movlw	2
  4030  001136  6FA8               	movwf	atanf@id& (0+255),b
  4031                           
  4032                           ; BSR set to: 0
  4033  001138  0E00               	movlw	0
  4034  00113A  6E23               	movwf	___fladd@a,c
  4035  00113C  0E00               	movlw	0
  4036  00113E  6E24               	movwf	___fladd@a+1,c
  4037  001140  0EC0               	movlw	192
  4038  001142  6E25               	movwf	___fladd@a+2,c
  4039  001144  0EBF               	movlw	191
  4040  001146  6E26               	movwf	___fladd@a+3,c
  4041  001148  C050  F01F         	movff	atanf@x,___fladd@b
  4042  00114C  C051  F020         	movff	atanf@x+1,___fladd@b+1
  4043  001150  C052  F021         	movff	atanf@x+2,___fladd@b+2
  4044  001154  C053  F022         	movff	atanf@x+3,___fladd@b+3
  4045  001158  ECB6  F011         	call	___fladd	;wreg free
  4046  00115C  C01F  F02F         	movff	?___fladd,___fldiv@b
  4047  001160  C020  F030         	movff	?___fladd+1,___fldiv@b+1
  4048  001164  C021  F031         	movff	?___fladd+2,___fldiv@b+2
  4049  001168  C022  F032         	movff	?___fladd+3,___fldiv@b+3
  4050  00116C  0E00               	movlw	0
  4051  00116E  6E23               	movwf	___fladd@a,c
  4052  001170  0E00               	movlw	0
  4053  001172  6E24               	movwf	___fladd@a+1,c
  4054  001174  0E80               	movlw	128
  4055  001176  6E25               	movwf	___fladd@a+2,c
  4056  001178  0E3F               	movlw	63
  4057  00117A  6E26               	movwf	___fladd@a+3,c
  4058  00117C  0E00               	movlw	0
  4059  00117E  6E05               	movwf	___flmul@a,c
  4060  001180  0E00               	movlw	0
  4061  001182  6E06               	movwf	___flmul@a+1,c
  4062  001184  0EC0               	movlw	192
  4063  001186  6E07               	movwf	___flmul@a+2,c
  4064  001188  0E3F               	movlw	63
  4065  00118A  6E08               	movwf	___flmul@a+3,c
  4066  00118C  C050  F001         	movff	atanf@x,___flmul@b
  4067  001190  C051  F002         	movff	atanf@x+1,___flmul@b+1
  4068  001194  C052  F003         	movff	atanf@x+2,___flmul@b+2
  4069  001198  C053  F004         	movff	atanf@x+3,___flmul@b+3
  4070  00119C  EC0D  F010         	call	___flmul	;wreg free
  4071  0011A0  C001  F01F         	movff	?___flmul,___fladd@b
  4072  0011A4  C002  F020         	movff	?___flmul+1,___fladd@b+1
  4073  0011A8  C003  F021         	movff	?___flmul+2,___fladd@b+2
  4074  0011AC  C004  F022         	movff	?___flmul+3,___fladd@b+3
  4075  0011B0  ECB6  F011         	call	___fladd	;wreg free
  4076  0011B4  C01F  F033         	movff	?___fladd,___fldiv@a
  4077  0011B8  C020  F034         	movff	?___fladd+1,___fldiv@a+1
  4078  0011BC  C021  F035         	movff	?___fladd+2,___fldiv@a+2
  4079  0011C0  C022  F036         	movff	?___fladd+3,___fldiv@a+3
  4080  0011C4  EC3C  F013         	call	___fldiv	;wreg free
  4081  0011C8  D016               	goto	L2
  4082  0011CA                     l3212:
  4083                           
  4084                           ; BSR set to: 0
  4085  0011CA  0E00               	movlw	0
  4086  0011CC  6FA9               	movwf	(atanf@id+1)& (0+255),b
  4087  0011CE  0E03               	movlw	3
  4088  0011D0  6FA8               	movwf	atanf@id& (0+255),b
  4089                           
  4090                           ; BSR set to: 0
  4091  0011D2  0E00               	movlw	0
  4092  0011D4  6E2F               	movwf	___fldiv@b,c
  4093  0011D6  0E00               	movlw	0
  4094  0011D8  6E30               	movwf	___fldiv@b+1,c
  4095  0011DA  0E80               	movlw	128
  4096  0011DC  6E31               	movwf	___fldiv@b+2,c
  4097  0011DE  0EBF               	movlw	191
  4098  0011E0  6E32               	movwf	___fldiv@b+3,c
  4099  0011E2  C050  F033         	movff	atanf@x,___fldiv@a
  4100  0011E6  C051  F034         	movff	atanf@x+1,___fldiv@a+1
  4101  0011EA  C052  F035         	movff	atanf@x+2,___fldiv@a+2
  4102  0011EE  C053  F036         	movff	atanf@x+3,___fldiv@a+3
  4103  0011F2  EC3C  F013         	call	___fldiv	;wreg free
  4104  0011F6                     L2:
  4105  0011F6  C02F  F050         	movff	?___fldiv,atanf@x
  4106  0011FA  C030  F051         	movff	?___fldiv+1,atanf@x+1
  4107  0011FE  C031  F052         	movff	?___fldiv+2,atanf@x+2
  4108  001202  C032  F053         	movff	?___fldiv+3,atanf@x+3
  4109  001206                     l3216:
  4110  001206  C050  F001         	movff	atanf@x,___flmul@b
  4111  00120A  C051  F002         	movff	atanf@x+1,___flmul@b+1
  4112  00120E  C052  F003         	movff	atanf@x+2,___flmul@b+2
  4113  001212  C053  F004         	movff	atanf@x+3,___flmul@b+3
  4114  001216  C050  F005         	movff	atanf@x,___flmul@a
  4115  00121A  C051  F006         	movff	atanf@x+1,___flmul@a+1
  4116  00121E  C052  F007         	movff	atanf@x+2,___flmul@a+2
  4117  001222  C053  F008         	movff	atanf@x+3,___flmul@a+3
  4118  001226  EC0D  F010         	call	___flmul	;wreg free
  4119  00122A  C001  F0AA         	movff	?___flmul,atanf@z
  4120  00122E  C002  F0AB         	movff	?___flmul+1,atanf@z+1
  4121  001232  C003  F0AC         	movff	?___flmul+2,atanf@z+2
  4122  001236  C004  F0AD         	movff	?___flmul+3,atanf@z+3
  4123  00123A  C0AA  F001         	movff	atanf@z,___flmul@b
  4124  00123E  C0AB  F002         	movff	atanf@z+1,___flmul@b+1
  4125  001242  C0AC  F003         	movff	atanf@z+2,___flmul@b+2
  4126  001246  C0AD  F004         	movff	atanf@z+3,___flmul@b+3
  4127  00124A  C0AA  F005         	movff	atanf@z,___flmul@a
  4128  00124E  C0AB  F006         	movff	atanf@z+1,___flmul@a+1
  4129  001252  C0AC  F007         	movff	atanf@z+2,___flmul@a+2
  4130  001256  C0AD  F008         	movff	atanf@z+3,___flmul@a+3
  4131  00125A  EC0D  F010         	call	___flmul	;wreg free
  4132  00125E  C001  F0A4         	movff	?___flmul,atanf@w
  4133  001262  C002  F0A5         	movff	?___flmul+1,atanf@w+1
  4134  001266  C003  F0A6         	movff	?___flmul+2,atanf@w+2
  4135  00126A  C004  F0A7         	movff	?___flmul+3,atanf@w+3
  4136  00126E  0E69               	movlw	low (_aT+8)
  4137  001270  6EF6               	movwf	tblptrl,c
  4138  001272  0E06               	movlw	high (_aT+8)
  4139  001274  6EF7               	movwf	tblptrh,c
  4140  001276                     	if	0	;tblptru may be non-zero
  4141  001276                     	endif
  4142  001276                     	if	0	;tblptru may be non-zero
  4143  001276                     	endif
  4144  001276  0009               	tblrd		*+
  4145  001278  CFF5 F023          	movff	tablat,___fladd@a
  4146  00127C  0009               	tblrd		*+
  4147  00127E  CFF5 F024          	movff	tablat,___fladd@a+1
  4148  001282  0009               	tblrd		*+
  4149  001284  CFF5 F025          	movff	tablat,___fladd@a+2
  4150  001288  000A               	tblrd		*-
  4151  00128A  CFF5 F026          	movff	tablat,___fladd@a+3
  4152  00128E  C0A4  F005         	movff	atanf@w,___flmul@a
  4153  001292  C0A5  F006         	movff	atanf@w+1,___flmul@a+1
  4154  001296  C0A6  F007         	movff	atanf@w+2,___flmul@a+2
  4155  00129A  C0A7  F008         	movff	atanf@w+3,___flmul@a+3
  4156  00129E  0E71               	movlw	low (_aT+16)
  4157  0012A0  6EF6               	movwf	tblptrl,c
  4158  0012A2  0E06               	movlw	high (_aT+16)
  4159  0012A4  6EF7               	movwf	tblptrh,c
  4160  0012A6                     	if	0	;tblptru may be non-zero
  4161  0012A6                     	endif
  4162  0012A6                     	if	0	;tblptru may be non-zero
  4163  0012A6                     	endif
  4164  0012A6  0009               	tblrd		*+
  4165  0012A8  CFF5 F001          	movff	tablat,___flmul@b
  4166  0012AC  0009               	tblrd		*+
  4167  0012AE  CFF5 F002          	movff	tablat,___flmul@b+1
  4168  0012B2  0009               	tblrd		*+
  4169  0012B4  CFF5 F003          	movff	tablat,___flmul@b+2
  4170  0012B8  000A               	tblrd		*-
  4171  0012BA  CFF5 F004          	movff	tablat,___flmul@b+3
  4172  0012BE  EC0D  F010         	call	___flmul	;wreg free
  4173  0012C2  C001  F01F         	movff	?___flmul,___fladd@b
  4174  0012C6  C002  F020         	movff	?___flmul+1,___fladd@b+1
  4175  0012CA  C003  F021         	movff	?___flmul+2,___fladd@b+2
  4176  0012CE  C004  F022         	movff	?___flmul+3,___fladd@b+3
  4177  0012D2  ECB6  F011         	call	___fladd	;wreg free
  4178  0012D6  C01F  F09C         	movff	?___fladd,_atanf$1016
  4179  0012DA  C020  F09D         	movff	?___fladd+1,_atanf$1016+1
  4180  0012DE  C021  F09E         	movff	?___fladd+2,_atanf$1016+2
  4181  0012E2  C022  F09F         	movff	?___fladd+3,_atanf$1016+3
  4182  0012E6  0E61               	movlw	low _aT
  4183  0012E8  6EF6               	movwf	tblptrl,c
  4184  0012EA                     	if	1	;There is more than 1 active tblptr byte
  4185  0012EA  0E06               	movlw	high _aT
  4186  0012EC  6EF7               	movwf	tblptrh,c
  4187  0012EE                     	endif
  4188  0012EE                     	if	0	;There are less than 3 active tblptr bytes
  4189  0012EE                     	endif
  4190  0012EE  0009               	tblrd		*+
  4191  0012F0  CFF5 F023          	movff	tablat,___fladd@a
  4192  0012F4  0009               	tblrd		*+
  4193  0012F6  CFF5 F024          	movff	tablat,___fladd@a+1
  4194  0012FA  0009               	tblrd		*+
  4195  0012FC  CFF5 F025          	movff	tablat,___fladd@a+2
  4196  001300  000A               	tblrd		*-
  4197  001302  CFF5 F026          	movff	tablat,___fladd@a+3
  4198  001306  C0A4  F005         	movff	atanf@w,___flmul@a
  4199  00130A  C0A5  F006         	movff	atanf@w+1,___flmul@a+1
  4200  00130E  C0A6  F007         	movff	atanf@w+2,___flmul@a+2
  4201  001312  C0A7  F008         	movff	atanf@w+3,___flmul@a+3
  4202  001316  C09C  F001         	movff	_atanf$1016,___flmul@b
  4203  00131A  C09D  F002         	movff	_atanf$1016+1,___flmul@b+1
  4204  00131E  C09E  F003         	movff	_atanf$1016+2,___flmul@b+2
  4205  001322  C09F  F004         	movff	_atanf$1016+3,___flmul@b+3
  4206  001326  EC0D  F010         	call	___flmul	;wreg free
  4207  00132A  C001  F01F         	movff	?___flmul,___fladd@b
  4208  00132E  C002  F020         	movff	?___flmul+1,___fladd@b+1
  4209  001332  C003  F021         	movff	?___flmul+2,___fladd@b+2
  4210  001336  C004  F022         	movff	?___flmul+3,___fladd@b+3
  4211  00133A  ECB6  F011         	call	___fladd	;wreg free
  4212  00133E  C01F  F084         	movff	?___fladd,_atanf$1017
  4213  001342  C020  F085         	movff	?___fladd+1,_atanf$1017+1
  4214  001346  C021  F086         	movff	?___fladd+2,_atanf$1017+2
  4215  00134A  C022  F087         	movff	?___fladd+3,_atanf$1017+3
  4216  00134E  C084  F001         	movff	_atanf$1017,___flmul@b
  4217  001352  C085  F002         	movff	_atanf$1017+1,___flmul@b+1
  4218  001356  C086  F003         	movff	_atanf$1017+2,___flmul@b+2
  4219  00135A  C087  F004         	movff	_atanf$1017+3,___flmul@b+3
  4220  00135E  C0AA  F005         	movff	atanf@z,___flmul@a
  4221  001362  C0AB  F006         	movff	atanf@z+1,___flmul@a+1
  4222  001366  C0AC  F007         	movff	atanf@z+2,___flmul@a+2
  4223  00136A  C0AD  F008         	movff	atanf@z+3,___flmul@a+3
  4224  00136E  EC0D  F010         	call	___flmul	;wreg free
  4225  001372  C001  F090         	movff	?___flmul,atanf@s1
  4226  001376  C002  F091         	movff	?___flmul+1,atanf@s1+1
  4227  00137A  C003  F092         	movff	?___flmul+2,atanf@s1+2
  4228  00137E  C004  F093         	movff	?___flmul+3,atanf@s1+3
  4229  001382  0E65               	movlw	low (_aT+4)
  4230  001384  6EF6               	movwf	tblptrl,c
  4231  001386  0E06               	movlw	high (_aT+4)
  4232  001388  6EF7               	movwf	tblptrh,c
  4233  00138A                     	if	0	;tblptru may be non-zero
  4234  00138A                     	endif
  4235  00138A                     	if	0	;tblptru may be non-zero
  4236  00138A                     	endif
  4237  00138A  0009               	tblrd		*+
  4238  00138C  CFF5 F023          	movff	tablat,___fladd@a
  4239  001390  0009               	tblrd		*+
  4240  001392  CFF5 F024          	movff	tablat,___fladd@a+1
  4241  001396  0009               	tblrd		*+
  4242  001398  CFF5 F025          	movff	tablat,___fladd@a+2
  4243  00139C  000A               	tblrd		*-
  4244  00139E  CFF5 F026          	movff	tablat,___fladd@a+3
  4245  0013A2  C0A4  F005         	movff	atanf@w,___flmul@a
  4246  0013A6  C0A5  F006         	movff	atanf@w+1,___flmul@a+1
  4247  0013AA  C0A6  F007         	movff	atanf@w+2,___flmul@a+2
  4248  0013AE  C0A7  F008         	movff	atanf@w+3,___flmul@a+3
  4249  0013B2  0E6D               	movlw	low (_aT+12)
  4250  0013B4  6EF6               	movwf	tblptrl,c
  4251  0013B6  0E06               	movlw	high (_aT+12)
  4252  0013B8  6EF7               	movwf	tblptrh,c
  4253  0013BA                     	if	0	;tblptru may be non-zero
  4254  0013BA                     	endif
  4255  0013BA                     	if	0	;tblptru may be non-zero
  4256  0013BA                     	endif
  4257  0013BA  0009               	tblrd		*+
  4258  0013BC  CFF5 F001          	movff	tablat,___flmul@b
  4259  0013C0  0009               	tblrd		*+
  4260  0013C2  CFF5 F002          	movff	tablat,___flmul@b+1
  4261  0013C6  0009               	tblrd		*+
  4262  0013C8  CFF5 F003          	movff	tablat,___flmul@b+2
  4263  0013CC  000A               	tblrd		*-
  4264  0013CE  CFF5 F004          	movff	tablat,___flmul@b+3
  4265  0013D2  EC0D  F010         	call	___flmul	;wreg free
  4266  0013D6  C001  F01F         	movff	?___flmul,___fladd@b
  4267  0013DA  C002  F020         	movff	?___flmul+1,___fladd@b+1
  4268  0013DE  C003  F021         	movff	?___flmul+2,___fladd@b+2
  4269  0013E2  C004  F022         	movff	?___flmul+3,___fladd@b+3
  4270  0013E6  ECB6  F011         	call	___fladd	;wreg free
  4271  0013EA  C01F  F09C         	movff	?___fladd,_atanf$1016
  4272  0013EE  C020  F09D         	movff	?___fladd+1,_atanf$1016+1
  4273  0013F2  C021  F09E         	movff	?___fladd+2,_atanf$1016+2
  4274  0013F6  C022  F09F         	movff	?___fladd+3,_atanf$1016+3
  4275  0013FA  C09C  F001         	movff	_atanf$1016,___flmul@b
  4276  0013FE  C09D  F002         	movff	_atanf$1016+1,___flmul@b+1
  4277  001402  C09E  F003         	movff	_atanf$1016+2,___flmul@b+2
  4278  001406  C09F  F004         	movff	_atanf$1016+3,___flmul@b+3
  4279  00140A  C0A4  F005         	movff	atanf@w,___flmul@a
  4280  00140E  C0A5  F006         	movff	atanf@w+1,___flmul@a+1
  4281  001412  C0A6  F007         	movff	atanf@w+2,___flmul@a+2
  4282  001416  C0A7  F008         	movff	atanf@w+3,___flmul@a+3
  4283  00141A  EC0D  F010         	call	___flmul	;wreg free
  4284  00141E  C001  F094         	movff	?___flmul,atanf@s2
  4285  001422  C002  F095         	movff	?___flmul+1,atanf@s2+1
  4286  001426  C003  F096         	movff	?___flmul+2,atanf@s2+2
  4287  00142A  C004  F097         	movff	?___flmul+3,atanf@s2+3
  4288  00142E  0100               	movlb	0	; () banked
  4289  001430  AFA9               	btfss	(atanf@id+1)& (0+255),7,b
  4290  001432  D047               	goto	l3238
  4291                           
  4292                           ; BSR set to: 0
  4293  001434  C050  F005         	movff	atanf@x,___flmul@a
  4294  001438  C051  F006         	movff	atanf@x+1,___flmul@a+1
  4295  00143C  C052  F007         	movff	atanf@x+2,___flmul@a+2
  4296  001440  C053  F008         	movff	atanf@x+3,___flmul@a+3
  4297  001444  C094  F023         	movff	atanf@s2,___fladd@a
  4298  001448  C095  F024         	movff	atanf@s2+1,___fladd@a+1
  4299  00144C  C096  F025         	movff	atanf@s2+2,___fladd@a+2
  4300  001450  C097  F026         	movff	atanf@s2+3,___fladd@a+3
  4301  001454  C090  F01F         	movff	atanf@s1,___fladd@b
  4302  001458  C091  F020         	movff	atanf@s1+1,___fladd@b+1
  4303  00145C  C092  F021         	movff	atanf@s1+2,___fladd@b+2
  4304  001460  C093  F022         	movff	atanf@s1+3,___fladd@b+3
  4305  001464  ECB6  F011         	call	___fladd	;wreg free
  4306  001468  C01F  F001         	movff	?___fladd,___flmul@b
  4307  00146C  C020  F002         	movff	?___fladd+1,___flmul@b+1
  4308  001470  C021  F003         	movff	?___fladd+2,___flmul@b+2
  4309  001474  C022  F004         	movff	?___fladd+3,___flmul@b+3
  4310  001478  EC0D  F010         	call	___flmul	;wreg free
  4311  00147C  C001  F0A0         	movff	?___flmul,_atanf$1018
  4312  001480  C002  F0A1         	movff	?___flmul+1,_atanf$1018+1
  4313  001484  C003  F0A2         	movff	?___flmul+2,_atanf$1018+2
  4314  001488  C004  F0A3         	movff	?___flmul+3,_atanf$1018+3
  4315  00148C  C050  F02F         	movff	atanf@x,___flsub@b
  4316  001490  C051  F030         	movff	atanf@x+1,___flsub@b+1
  4317  001494  C052  F031         	movff	atanf@x+2,___flsub@b+2
  4318  001498  C053  F032         	movff	atanf@x+3,___flsub@b+3
  4319  00149C  C0A0  F033         	movff	_atanf$1018,___flsub@a
  4320  0014A0  C0A1  F034         	movff	_atanf$1018+1,___flsub@a+1
  4321  0014A4  C0A2  F035         	movff	_atanf$1018+2,___flsub@a+2
  4322  0014A8  C0A3  F036         	movff	_atanf$1018+3,___flsub@a+3
  4323  0014AC  EC32  F018         	call	___flsub	;wreg free
  4324  0014B0  C02F  F050         	movff	?___flsub,?_atanf
  4325  0014B4  C030  F051         	movff	?___flsub+1,?_atanf+1
  4326  0014B8  C031  F052         	movff	?___flsub+2,?_atanf+2
  4327  0014BC  C032  F053         	movff	?___flsub+3,?_atanf+3
  4328  0014C0  0012               	return	
  4329  0014C2                     l3238:
  4330                           
  4331                           ; BSR set to: 0
  4332  0014C2  C050  F005         	movff	atanf@x,___flmul@a
  4333  0014C6  C051  F006         	movff	atanf@x+1,___flmul@a+1
  4334  0014CA  C052  F007         	movff	atanf@x+2,___flmul@a+2
  4335  0014CE  C053  F008         	movff	atanf@x+3,___flmul@a+3
  4336  0014D2  C094  F023         	movff	atanf@s2,___fladd@a
  4337  0014D6  C095  F024         	movff	atanf@s2+1,___fladd@a+1
  4338  0014DA  C096  F025         	movff	atanf@s2+2,___fladd@a+2
  4339  0014DE  C097  F026         	movff	atanf@s2+3,___fladd@a+3
  4340  0014E2  C090  F01F         	movff	atanf@s1,___fladd@b
  4341  0014E6  C091  F020         	movff	atanf@s1+1,___fladd@b+1
  4342  0014EA  C092  F021         	movff	atanf@s1+2,___fladd@b+2
  4343  0014EE  C093  F022         	movff	atanf@s1+3,___fladd@b+3
  4344  0014F2  ECB6  F011         	call	___fladd	;wreg free
  4345  0014F6  C01F  F001         	movff	?___fladd,___flmul@b
  4346  0014FA  C020  F002         	movff	?___fladd+1,___flmul@b+1
  4347  0014FE  C021  F003         	movff	?___fladd+2,___flmul@b+2
  4348  001502  C022  F004         	movff	?___fladd+3,___flmul@b+3
  4349  001506  EC0D  F010         	call	___flmul	;wreg free
  4350  00150A  C001  F0A0         	movff	?___flmul,_atanf$1018
  4351  00150E  C002  F0A1         	movff	?___flmul+1,_atanf$1018+1
  4352  001512  C003  F0A2         	movff	?___flmul+2,_atanf$1018+2
  4353  001516  C004  F0A3         	movff	?___flmul+3,_atanf$1018+3
  4354  00151A  C0A8  F054         	movff	atanf@id,??_atanf
  4355  00151E  C0A9  F055         	movff	atanf@id+1,??_atanf+1
  4356  001522  90D8               	bcf	status,0,c
  4357  001524  3654               	rlcf	??_atanf,f,c
  4358  001526  3655               	rlcf	??_atanf+1,f,c
  4359  001528  90D8               	bcf	status,0,c
  4360  00152A  3654               	rlcf	??_atanf,f,c
  4361  00152C  3655               	rlcf	??_atanf+1,f,c
  4362  00152E  0E75               	movlw	low _atanlo
  4363  001530  2454               	addwf	??_atanf,w,c
  4364  001532  6EF6               	movwf	tblptrl,c
  4365  001534  0E06               	movlw	high _atanlo
  4366  001536  2055               	addwfc	??_atanf+1,w,c
  4367  001538  6EF7               	movwf	tblptrh,c
  4368  00153A                     	if	0	;There are less than 3 active tblptr bytes
  4369  00153A                     	endif
  4370  00153A  0009               	tblrd		*+
  4371  00153C  CFF5 F033          	movff	tablat,___flsub@a
  4372  001540  0009               	tblrd		*+
  4373  001542  CFF5 F034          	movff	tablat,___flsub@a+1
  4374  001546  0009               	tblrd		*+
  4375  001548  CFF5 F035          	movff	tablat,___flsub@a+2
  4376  00154C  000A               	tblrd		*-
  4377  00154E  CFF5 F036          	movff	tablat,___flsub@a+3
  4378  001552  C0A0  F02F         	movff	_atanf$1018,___flsub@b
  4379  001556  C0A1  F030         	movff	_atanf$1018+1,___flsub@b+1
  4380  00155A  C0A2  F031         	movff	_atanf$1018+2,___flsub@b+2
  4381  00155E  C0A3  F032         	movff	_atanf$1018+3,___flsub@b+3
  4382  001562  EC32  F018         	call	___flsub	;wreg free
  4383  001566  C02F  F088         	movff	?___flsub,_atanf$1019
  4384  00156A  C030  F089         	movff	?___flsub+1,_atanf$1019+1
  4385  00156E  C031  F08A         	movff	?___flsub+2,_atanf$1019+2
  4386  001572  C032  F08B         	movff	?___flsub+3,_atanf$1019+3
  4387  001576  C050  F033         	movff	atanf@x,___flsub@a
  4388  00157A  C051  F034         	movff	atanf@x+1,___flsub@a+1
  4389  00157E  C052  F035         	movff	atanf@x+2,___flsub@a+2
  4390  001582  C053  F036         	movff	atanf@x+3,___flsub@a+3
  4391  001586  C088  F02F         	movff	_atanf$1019,___flsub@b
  4392  00158A  C089  F030         	movff	_atanf$1019+1,___flsub@b+1
  4393  00158E  C08A  F031         	movff	_atanf$1019+2,___flsub@b+2
  4394  001592  C08B  F032         	movff	_atanf$1019+3,___flsub@b+3
  4395  001596  EC32  F018         	call	___flsub	;wreg free
  4396  00159A  C02F  F08C         	movff	?___flsub,_atanf$1020
  4397  00159E  C030  F08D         	movff	?___flsub+1,_atanf$1020+1
  4398  0015A2  C031  F08E         	movff	?___flsub+2,_atanf$1020+2
  4399  0015A6  C032  F08F         	movff	?___flsub+3,_atanf$1020+3
  4400  0015AA  C0A8  F054         	movff	atanf@id,??_atanf
  4401  0015AE  C0A9  F055         	movff	atanf@id+1,??_atanf+1
  4402  0015B2  90D8               	bcf	status,0,c
  4403  0015B4  3654               	rlcf	??_atanf,f,c
  4404  0015B6  3655               	rlcf	??_atanf+1,f,c
  4405  0015B8  90D8               	bcf	status,0,c
  4406  0015BA  3654               	rlcf	??_atanf,f,c
  4407  0015BC  3655               	rlcf	??_atanf+1,f,c
  4408  0015BE  0E85               	movlw	low _atanhi
  4409  0015C0  2454               	addwf	??_atanf,w,c
  4410  0015C2  6EF6               	movwf	tblptrl,c
  4411  0015C4  0E06               	movlw	high _atanhi
  4412  0015C6  2055               	addwfc	??_atanf+1,w,c
  4413  0015C8  6EF7               	movwf	tblptrh,c
  4414  0015CA                     	if	0	;There are less than 3 active tblptr bytes
  4415  0015CA                     	endif
  4416  0015CA  0009               	tblrd		*+
  4417  0015CC  CFF5 F02F          	movff	tablat,___flsub@b
  4418  0015D0  0009               	tblrd		*+
  4419  0015D2  CFF5 F030          	movff	tablat,___flsub@b+1
  4420  0015D6  0009               	tblrd		*+
  4421  0015D8  CFF5 F031          	movff	tablat,___flsub@b+2
  4422  0015DC  000A               	tblrd		*-
  4423  0015DE  CFF5 F032          	movff	tablat,___flsub@b+3
  4424  0015E2  C08C  F033         	movff	_atanf$1020,___flsub@a
  4425  0015E6  C08D  F034         	movff	_atanf$1020+1,___flsub@a+1
  4426  0015EA  C08E  F035         	movff	_atanf$1020+2,___flsub@a+2
  4427  0015EE  C08F  F036         	movff	_atanf$1020+3,___flsub@a+3
  4428  0015F2  EC32  F018         	call	___flsub	;wreg free
  4429  0015F6  C02F  F0AA         	movff	?___flsub,atanf@z
  4430  0015FA  C030  F0AB         	movff	?___flsub+1,atanf@z+1
  4431  0015FE  C031  F0AC         	movff	?___flsub+2,atanf@z+2
  4432  001602  C032  F0AD         	movff	?___flsub+3,atanf@z+3
  4433  001606  0100               	movlb	0	; () banked
  4434  001608  5198               	movf	atanf@sign& (0+255),w,b
  4435  00160A  1199               	iorwf	(atanf@sign+1)& (0+255),w,b
  4436  00160C  119A               	iorwf	(atanf@sign+2)& (0+255),w,b
  4437  00160E  119B               	iorwf	(atanf@sign+3)& (0+255),w,b
  4438  001610  B4D8               	btfsc	status,2,c
  4439  001612  D4B6               	goto	u3110
  4440  001614  D4BE               	goto	l3182
  4441  001616                     __end_of_atanf:
  4442                           	opt callstack 0
  4443                           
  4444 ;; *************** function _fabsf *****************
  4445 ;; Defined at:
  4446 ;;		line 4 in file "C:\Program Files (x86)\Microchip\xc8\v2.05\pic\sources\c99\common\fabsf.c"
  4447 ;; Parameters:    Size  Location     Type
  4448 ;;  x               4   71[COMRAM] float 
  4449 ;; Auto vars:     Size  Location     Type
  4450 ;;  u               4   75[COMRAM] struct .
  4451 ;; Return value:  Size  Location     Type
  4452 ;;                  4   71[COMRAM] float 
  4453 ;; Registers used:
  4454 ;;		status,2, status,0
  4455 ;; Tracked objects:
  4456 ;;		On entry : 0/0
  4457 ;;		On exit  : 0/0
  4458 ;;		Unchanged: 0/0
  4459 ;; Data sizes:     COMRAM   BANK0   BANK1   BANK2   BANK3   BANK4   BANK5
  4460 ;;      Params:         4       0       0       0       0       0       0
  4461 ;;      Locals:         4       0       0       0       0       0       0
  4462 ;;      Temps:          0       0       0       0       0       0       0
  4463 ;;      Totals:         8       0       0       0       0       0       0
  4464 ;;Total ram usage:        8 bytes
  4465 ;; Hardware stack levels used:    1
  4466 ;; This function calls:
  4467 ;;		Nothing
  4468 ;; This function is called by:
  4469 ;;		_atan2f
  4470 ;;		_atanf
  4471 ;; This function uses a non-reentrant model
  4472 ;;
  4473                           
  4474                           	psect	text12
  4475  0030E0                     __ptext12:
  4476                           	opt callstack 0
  4477  0030E0                     _fabsf:
  4478                           	opt callstack 28
  4479                           
  4480                           ;incstack = 0
  4481  0030E0  C0DE  F04C         	movff	fabsf@F463,fabsf@u
  4482  0030E4  C0DF  F04D         	movff	fabsf@F463+1,fabsf@u+1
  4483  0030E8  C0E0  F04E         	movff	fabsf@F463+2,fabsf@u+2
  4484  0030EC  C0E1  F04F         	movff	fabsf@F463+3,fabsf@u+3
  4485  0030F0  C048  F04C         	movff	fabsf@x,fabsf@u
  4486  0030F4  C049  F04D         	movff	fabsf@x+1,fabsf@u+1
  4487  0030F8  C04A  F04E         	movff	fabsf@x+2,fabsf@u+2
  4488  0030FC  C04B  F04F         	movff	fabsf@x+3,fabsf@u+3
  4489  003100  9E4F               	bcf	fabsf@u+3,7,c
  4490  003102  C04C  F048         	movff	fabsf@u,?_fabsf
  4491  003106  C04D  F049         	movff	fabsf@u+1,?_fabsf+1
  4492  00310A  C04E  F04A         	movff	fabsf@u+2,?_fabsf+2
  4493  00310E  C04F  F04B         	movff	fabsf@u+3,?_fabsf+3
  4494  003112  0012               	return		;funcret
  4495  003114                     __end_of_fabsf:
  4496                           	opt callstack 0
  4497                           
  4498 ;; *************** function ___fpclassifyf *****************
  4499 ;; Defined at:
  4500 ;;		line 4 in file "C:\Program Files (x86)\Microchip\xc8\v2.05\pic\sources\c99\common\__fpclassifyf.c"
  4501 ;; Parameters:    Size  Location     Type
  4502 ;;  x               4    0[COMRAM] float 
  4503 ;; Auto vars:     Size  Location     Type
  4504 ;;  u               4   10[COMRAM] struct .
  4505 ;;  e               2    8[COMRAM] int 
  4506 ;; Return value:  Size  Location     Type
  4507 ;;                  2    0[COMRAM] int 
  4508 ;; Registers used:
  4509 ;;		wreg, status,2, status,0
  4510 ;; Tracked objects:
  4511 ;;		On entry : 0/0
  4512 ;;		On exit  : 0/0
  4513 ;;		Unchanged: 0/0
  4514 ;; Data sizes:     COMRAM   BANK0   BANK1   BANK2   BANK3   BANK4   BANK5
  4515 ;;      Params:         4       0       0       0       0       0       0
  4516 ;;      Locals:         6       0       0       0       0       0       0
  4517 ;;      Temps:          4       0       0       0       0       0       0
  4518 ;;      Totals:        14       0       0       0       0       0       0
  4519 ;;Total ram usage:       14 bytes
  4520 ;; Hardware stack levels used:    1
  4521 ;; This function calls:
  4522 ;;		Nothing
  4523 ;; This function is called by:
  4524 ;;		_atan2f
  4525 ;;		_atanf
  4526 ;; This function uses a non-reentrant model
  4527 ;;
  4528                           
  4529                           	psect	text13
  4530  002CE4                     __ptext13:
  4531                           	opt callstack 0
  4532  002CE4                     ___fpclassifyf:
  4533                           	opt callstack 27
  4534                           
  4535                           ;incstack = 0
  4536  002CE4  C0DA  F00B         	movff	___fpclassifyf@F463,___fpclassifyf@u
  4537  002CE8  C0DB  F00C         	movff	___fpclassifyf@F463+1,___fpclassifyf@u+1
  4538  002CEC  C0DC  F00D         	movff	___fpclassifyf@F463+2,___fpclassifyf@u+2
  4539  002CF0  C0DD  F00E         	movff	___fpclassifyf@F463+3,___fpclassifyf@u+3
  4540  002CF4  C001  F00B         	movff	___fpclassifyf@x,___fpclassifyf@u
  4541  002CF8  C002  F00C         	movff	___fpclassifyf@x+1,___fpclassifyf@u+1
  4542  002CFC  C003  F00D         	movff	___fpclassifyf@x+2,___fpclassifyf@u+2
  4543  002D00  C004  F00E         	movff	___fpclassifyf@x+3,___fpclassifyf@u+3
  4544  002D04  C00B  F005         	movff	___fpclassifyf@u,??___fpclassifyf
  4545  002D08  C00C  F006         	movff	___fpclassifyf@u+1,??___fpclassifyf+1
  4546  002D0C  C00D  F007         	movff	___fpclassifyf@u+2,??___fpclassifyf+2
  4547  002D10  C00E  F008         	movff	___fpclassifyf@u+3,??___fpclassifyf+3
  4548  002D14  0E18               	movlw	24
  4549  002D16  D005               	goto	u2950
  4550  002D18                     u2955:
  4551  002D18  90D8               	bcf	status,0,c
  4552  002D1A  3208               	rrcf	??___fpclassifyf+3,f,c
  4553  002D1C  3207               	rrcf	??___fpclassifyf+2,f,c
  4554  002D1E  3206               	rrcf	??___fpclassifyf+1,f,c
  4555  002D20  3205               	rrcf	??___fpclassifyf,f,c
  4556  002D22                     u2950:
  4557  002D22  2EE8               	decfsz	wreg,f,c
  4558  002D24  D7F9               	goto	u2955
  4559  002D26  5005               	movf	??___fpclassifyf,w,c
  4560  002D28  6E09               	movwf	___fpclassifyf@e,c
  4561  002D2A  6A0A               	clrf	___fpclassifyf@e+1,c
  4562  002D2C  5009               	movf	___fpclassifyf@e,w,c
  4563  002D2E  100A               	iorwf	___fpclassifyf@e+1,w,c
  4564  002D30  A4D8               	btfss	status,2,c
  4565  002D32  D019               	goto	l3118
  4566  002D34  90D8               	bcf	status,0,c
  4567  002D36  340B               	rlcf	___fpclassifyf@u,w,c
  4568  002D38  6E05               	movwf	??___fpclassifyf& (0+255),c
  4569  002D3A  340C               	rlcf	___fpclassifyf@u+1,w,c
  4570  002D3C  6E06               	movwf	(??___fpclassifyf+1)& (0+255),c
  4571  002D3E  340D               	rlcf	___fpclassifyf@u+2,w,c
  4572  002D40  6E07               	movwf	(??___fpclassifyf+2)& (0+255),c
  4573  002D42  340E               	rlcf	___fpclassifyf@u+3,w,c
  4574  002D44  6E08               	movwf	(??___fpclassifyf+3)& (0+255),c
  4575  002D46  5005               	movf	??___fpclassifyf,w,c
  4576  002D48  1006               	iorwf	??___fpclassifyf+1,w,c
  4577  002D4A  1007               	iorwf	??___fpclassifyf+2,w,c
  4578  002D4C  1008               	iorwf	??___fpclassifyf+3,w,c
  4579  002D4E  A4D8               	btfss	status,2,c
  4580  002D50  D005               	goto	l3114
  4581  002D52  0E00               	movlw	0
  4582  002D54  6E02               	movwf	?___fpclassifyf+1,c
  4583  002D56  0E02               	movlw	2
  4584  002D58  6E01               	movwf	?___fpclassifyf,c
  4585  002D5A  0012               	return	
  4586  002D5C                     l3114:
  4587  002D5C  0E00               	movlw	0
  4588  002D5E  6E02               	movwf	?___fpclassifyf+1,c
  4589  002D60  0E03               	movlw	3
  4590  002D62  6E01               	movwf	?___fpclassifyf,c
  4591  002D64  0012               	return	
  4592  002D66                     l3118:
  4593  002D66  2809               	incf	___fpclassifyf@e,w,c
  4594  002D68  100A               	iorwf	___fpclassifyf@e+1,w,c
  4595  002D6A  A4D8               	btfss	status,2,c
  4596  002D6C  D01C               	goto	l3124
  4597  002D6E  C00B  F005         	movff	___fpclassifyf@u,??___fpclassifyf
  4598  002D72  C00C  F006         	movff	___fpclassifyf@u+1,??___fpclassifyf+1
  4599  002D76  C00D  F007         	movff	___fpclassifyf@u+2,??___fpclassifyf+2
  4600  002D7A  C00E  F008         	movff	___fpclassifyf@u+3,??___fpclassifyf+3
  4601  002D7E  0E09               	movlw	9
  4602  002D80                     u2995:
  4603  002D80  90D8               	bcf	status,0,c
  4604  002D82  3605               	rlcf	??___fpclassifyf,f,c
  4605  002D84  3606               	rlcf	??___fpclassifyf+1,f,c
  4606  002D86  3607               	rlcf	??___fpclassifyf+2,f,c
  4607  002D88  3608               	rlcf	??___fpclassifyf+3,f,c
  4608  002D8A  2EE8               	decfsz	wreg,f,c
  4609  002D8C  D7F9               	goto	u2995
  4610  002D8E  5005               	movf	??___fpclassifyf,w,c
  4611  002D90  1006               	iorwf	??___fpclassifyf+1,w,c
  4612  002D92  1007               	iorwf	??___fpclassifyf+2,w,c
  4613  002D94  1008               	iorwf	??___fpclassifyf+3,w,c
  4614  002D96  A4D8               	btfss	status,2,c
  4615  002D98  D002               	goto	u3000
  4616  002D9A  0E01               	movlw	1
  4617  002D9C  D001               	goto	u3010
  4618  002D9E                     u3000:
  4619  002D9E  0E00               	movlw	0
  4620  002DA0                     u3010:
  4621  002DA0  6E01               	movwf	?___fpclassifyf,c
  4622  002DA2  6A02               	clrf	?___fpclassifyf+1,c
  4623  002DA4  0012               	return	
  4624  002DA6                     l3124:
  4625  002DA6  0E00               	movlw	0
  4626  002DA8  6E02               	movwf	?___fpclassifyf+1,c
  4627  002DAA  0E04               	movlw	4
  4628  002DAC  6E01               	movwf	?___fpclassifyf,c
  4629  002DAE  0012               	return		;funcret
  4630  002DB0                     __end_of___fpclassifyf:
  4631                           	opt callstack 0
  4632                           
  4633 ;; *************** function ___flsub *****************
  4634 ;; Defined at:
  4635 ;;		line 245 in file "C:\Program Files (x86)\Microchip\xc8\v2.05\pic\sources\c99\common\sprcadd.c"
  4636 ;; Parameters:    Size  Location     Type
  4637 ;;  b               4   46[COMRAM] int 
  4638 ;;  a               4   50[COMRAM] int 
  4639 ;; Auto vars:     Size  Location     Type
  4640 ;;		None
  4641 ;; Return value:  Size  Location     Type
  4642 ;;                  4   46[COMRAM] int 
  4643 ;; Registers used:
  4644 ;;		wreg, status,2, status,0, cstack
  4645 ;; Tracked objects:
  4646 ;;		On entry : 0/0
  4647 ;;		On exit  : 0/0
  4648 ;;		Unchanged: 0/0
  4649 ;; Data sizes:     COMRAM   BANK0   BANK1   BANK2   BANK3   BANK4   BANK5
  4650 ;;      Params:         8       0       0       0       0       0       0
  4651 ;;      Locals:         0       0       0       0       0       0       0
  4652 ;;      Temps:          0       0       0       0       0       0       0
  4653 ;;      Totals:         8       0       0       0       0       0       0
  4654 ;;Total ram usage:        8 bytes
  4655 ;; Hardware stack levels used:    1
  4656 ;; Hardware stack levels required when called:    1
  4657 ;; This function calls:
  4658 ;;		___fladd
  4659 ;; This function is called by:
  4660 ;;		_atan2f
  4661 ;;		_atanf
  4662 ;; This function uses a non-reentrant model
  4663 ;;
  4664                           
  4665                           	psect	text14
  4666  003064                     __ptext14:
  4667                           	opt callstack 0
  4668  003064                     ___flsub:
  4669                           	opt callstack 26
  4670                           
  4671                           ;incstack = 0
  4672  003064  0E00               	movlw	0
  4673  003066  1A33               	xorwf	___flsub@a,f,c
  4674  003068  0E00               	movlw	0
  4675  00306A  1A34               	xorwf	___flsub@a+1,f,c
  4676  00306C  0E00               	movlw	0
  4677  00306E  1A35               	xorwf	___flsub@a+2,f,c
  4678  003070  0E80               	movlw	128
  4679  003072  1A36               	xorwf	___flsub@a+3,f,c
  4680  003074  C02F  F01F         	movff	___flsub@b,___fladd@b
  4681  003078  C030  F020         	movff	___flsub@b+1,___fladd@b+1
  4682  00307C  C031  F021         	movff	___flsub@b+2,___fladd@b+2
  4683  003080  C032  F022         	movff	___flsub@b+3,___fladd@b+3
  4684  003084  C033  F023         	movff	___flsub@a,___fladd@a
  4685  003088  C034  F024         	movff	___flsub@a+1,___fladd@a+1
  4686  00308C  C035  F025         	movff	___flsub@a+2,___fladd@a+2
  4687  003090  C036  F026         	movff	___flsub@a+3,___fladd@a+3
  4688  003094  ECB6  F011         	call	___fladd	;wreg free
  4689  003098  C01F  F02F         	movff	?___fladd,?___flsub
  4690  00309C  C020  F030         	movff	?___fladd+1,?___flsub+1
  4691  0030A0  C021  F031         	movff	?___fladd+2,?___flsub+2
  4692  0030A4  C022  F032         	movff	?___fladd+3,?___flsub+3
  4693  0030A8  0012               	return		;funcret
  4694  0030AA                     __end_of___flsub:
  4695                           	opt callstack 0
  4696                           
  4697 ;; *************** function ___fladd *****************
  4698 ;; Defined at:
  4699 ;;		line 10 in file "C:\Program Files (x86)\Microchip\xc8\v2.05\pic\sources\c99\common\sprcadd.c"
  4700 ;; Parameters:    Size  Location     Type
  4701 ;;  b               4   30[COMRAM] int 
  4702 ;;  a               4   34[COMRAM] int 
  4703 ;; Auto vars:     Size  Location     Type
  4704 ;;  grs             1   45[COMRAM] unsigned char 
  4705 ;;  bexp            1   44[COMRAM] unsigned char 
  4706 ;;  aexp            1   43[COMRAM] unsigned char 
  4707 ;;  signs           1   42[COMRAM] unsigned char 
  4708 ;; Return value:  Size  Location     Type
  4709 ;;                  4   30[COMRAM] unsigned char 
  4710 ;; Registers used:
  4711 ;;		wreg, status,2, status,0
  4712 ;; Tracked objects:
  4713 ;;		On entry : 0/0
  4714 ;;		On exit  : 0/0
  4715 ;;		Unchanged: 0/0
  4716 ;; Data sizes:     COMRAM   BANK0   BANK1   BANK2   BANK3   BANK4   BANK5
  4717 ;;      Params:         8       0       0       0       0       0       0
  4718 ;;      Locals:         4       0       0       0       0       0       0
  4719 ;;      Temps:          4       0       0       0       0       0       0
  4720 ;;      Totals:        16       0       0       0       0       0       0
  4721 ;;Total ram usage:       16 bytes
  4722 ;; Hardware stack levels used:    1
  4723 ;; This function calls:
  4724 ;;		Nothing
  4725 ;; This function is called by:
  4726 ;;		_readSensors_old
  4727 ;;		___flsub
  4728 ;;		_atan2f
  4729 ;;		_atanf
  4730 ;;		_sqrtf
  4731 ;; This function uses a non-reentrant model
  4732 ;;
  4733                           
  4734                           	psect	text15
  4735  00236C                     __ptext15:
  4736                           	opt callstack 0
  4737  00236C                     ___fladd:
  4738                           	opt callstack 28
  4739                           
  4740                           ;incstack = 0
  4741  00236C  5022               	movf	___fladd@b+3,w,c
  4742  00236E  0B80               	andlw	128
  4743  002370  6E2B               	movwf	___fladd@signs,c
  4744  002372  5022               	movf	___fladd@b+3,w,c
  4745  002374  2422               	addwf	___fladd@b+3,w,c
  4746  002376  6E2D               	movwf	___fladd@bexp,c
  4747  002378  BE21               	btfsc	___fladd@b+2,7,c
  4748  00237A  802D               	bsf	___fladd@bexp,0,c
  4749  00237C  502D               	movf	___fladd@bexp,w,c
  4750  00237E  B4D8               	btfsc	status,2,c
  4751  002380  D00D               	goto	l2606
  4752  002382  282D               	incf	___fladd@bexp,w,c
  4753  002384  A4D8               	btfss	status,2,c
  4754  002386  D008               	goto	l2602
  4755  002388  0E00               	movlw	0
  4756  00238A  6E1F               	movwf	___fladd@b,c
  4757  00238C  0E00               	movlw	0
  4758  00238E  6E20               	movwf	___fladd@b+1,c
  4759  002390  0E00               	movlw	0
  4760  002392  6E21               	movwf	___fladd@b+2,c
  4761  002394  0E00               	movlw	0
  4762  002396  6E22               	movwf	___fladd@b+3,c
  4763  002398                     l2602:
  4764  002398  8E21               	bsf	___fladd@b+2,7,c
  4765  00239A  D006               	goto	L3
  4766  00239C                     l2606:
  4767  00239C  0E00               	movlw	0
  4768  00239E  6E1F               	movwf	___fladd@b,c
  4769  0023A0  0E00               	movlw	0
  4770  0023A2  6E20               	movwf	___fladd@b+1,c
  4771  0023A4  0E00               	movlw	0
  4772  0023A6  6E21               	movwf	___fladd@b+2,c
  4773  0023A8                     L3:
  4774  0023A8  0E00               	movlw	0
  4775  0023AA  6E22               	movwf	___fladd@b+3,c
  4776  0023AC  5026               	movf	___fladd@a+3,w,c
  4777  0023AE  0B80               	andlw	128
  4778  0023B0  6E2C               	movwf	___fladd@aexp,c
  4779  0023B2  502B               	movf	___fladd@signs,w,c
  4780  0023B4  182C               	xorwf	___fladd@aexp,w,c
  4781  0023B6  A4D8               	btfss	status,2,c
  4782  0023B8  8C2B               	bsf	___fladd@signs,6,c
  4783  0023BA  5026               	movf	___fladd@a+3,w,c
  4784  0023BC  2426               	addwf	___fladd@a+3,w,c
  4785  0023BE  6E2C               	movwf	___fladd@aexp,c
  4786  0023C0  BE25               	btfsc	___fladd@a+2,7,c
  4787  0023C2  802C               	bsf	___fladd@aexp,0,c
  4788  0023C4  502C               	movf	___fladd@aexp,w,c
  4789  0023C6  B4D8               	btfsc	status,2,c
  4790  0023C8  D00D               	goto	l2630
  4791  0023CA  282C               	incf	___fladd@aexp,w,c
  4792  0023CC  A4D8               	btfss	status,2,c
  4793  0023CE  D008               	goto	l2626
  4794  0023D0  0E00               	movlw	0
  4795  0023D2  6E23               	movwf	___fladd@a,c
  4796  0023D4  0E00               	movlw	0
  4797  0023D6  6E24               	movwf	___fladd@a+1,c
  4798  0023D8  0E00               	movlw	0
  4799  0023DA  6E25               	movwf	___fladd@a+2,c
  4800  0023DC  0E00               	movlw	0
  4801  0023DE  6E26               	movwf	___fladd@a+3,c
  4802  0023E0                     l2626:
  4803  0023E0  8E25               	bsf	___fladd@a+2,7,c
  4804  0023E2  D006               	goto	L4
  4805  0023E4                     l2630:
  4806  0023E4  0E00               	movlw	0
  4807  0023E6  6E23               	movwf	___fladd@a,c
  4808  0023E8  0E00               	movlw	0
  4809  0023EA  6E24               	movwf	___fladd@a+1,c
  4810  0023EC  0E00               	movlw	0
  4811  0023EE  6E25               	movwf	___fladd@a+2,c
  4812  0023F0                     L4:
  4813  0023F0  0E00               	movlw	0
  4814  0023F2  6E26               	movwf	___fladd@a+3,c
  4815  0023F4  502D               	movf	___fladd@bexp,w,c
  4816  0023F6  5C2C               	subwf	___fladd@aexp,w,c
  4817  0023F8  B0D8               	btfsc	status,0,c
  4818  0023FA  D022               	goto	l2668
  4819  0023FC  AC2B               	btfss	___fladd@signs,6,c
  4820  0023FE  D002               	goto	l2638
  4821  002400  0E80               	movlw	128
  4822  002402  1A2B               	xorwf	___fladd@signs,f,c
  4823  002404                     l2638:
  4824  002404  C02D  F02E         	movff	___fladd@bexp,___fladd@grs
  4825  002408  C02C  F02D         	movff	___fladd@aexp,___fladd@bexp
  4826  00240C  C02E  F02C         	movff	___fladd@grs,___fladd@aexp
  4827  002410  C01F  F02E         	movff	___fladd@b,___fladd@grs
  4828  002414  C023  F01F         	movff	___fladd@a,___fladd@b
  4829  002418  C02E  F023         	movff	___fladd@grs,___fladd@a
  4830  00241C  C020  F02E         	movff	___fladd@b+1,___fladd@grs
  4831  002420  C024  F020         	movff	___fladd@a+1,___fladd@b+1
  4832  002424  C02E  F024         	movff	___fladd@grs,___fladd@a+1
  4833  002428  C021  F02E         	movff	___fladd@b+2,___fladd@grs
  4834  00242C  C025  F021         	movff	___fladd@a+2,___fladd@b+2
  4835  002430  C02E  F025         	movff	___fladd@grs,___fladd@a+2
  4836  002434  C022  F02E         	movff	___fladd@b+3,___fladd@grs
  4837  002438  C026  F022         	movff	___fladd@a+3,___fladd@b+3
  4838  00243C  C02E  F026         	movff	___fladd@grs,___fladd@a+3
  4839  002440                     l2668:
  4840  002440  0E00               	movlw	0
  4841  002442  6E2E               	movwf	___fladd@grs,c
  4842  002444  502D               	movf	___fladd@bexp,w,c
  4843  002446  C02C  F027         	movff	___fladd@aexp,??___fladd
  4844  00244A  6A28               	clrf	(??___fladd+1)& (0+255),c
  4845  00244C  5E27               	subwf	??___fladd,f,c
  4846  00244E  0E00               	movlw	0
  4847  002450  5A28               	subwfb	??___fladd+1,f,c
  4848  002452  BE28               	btfsc	??___fladd+1,7,c
  4849  002454  D02C               	goto	l664
  4850  002456  5028               	movf	??___fladd+1,w,c
  4851  002458  E104               	bnz	u2200
  4852  00245A  0E1A               	movlw	26
  4853  00245C  5C27               	subwf	??___fladd,w,c
  4854  00245E  A0D8               	btfss	status,0,c
  4855  002460  D026               	goto	l664
  4856  002462                     u2200:
  4857  002462  501F               	movf	___fladd@b,w,c
  4858  002464  1020               	iorwf	___fladd@b+1,w,c
  4859  002466  1021               	iorwf	___fladd@b+2,w,c
  4860  002468  1022               	iorwf	___fladd@b+3,w,c
  4861  00246A  B4D8               	btfsc	status,2,c
  4862  00246C  D002               	goto	u2210
  4863  00246E  0E01               	movlw	1
  4864  002470  D001               	goto	u2220
  4865  002472                     u2210:
  4866  002472  0E00               	movlw	0
  4867  002474                     u2220:
  4868  002474  6E2E               	movwf	___fladd@grs,c
  4869  002476  0E00               	movlw	0
  4870  002478  6E1F               	movwf	___fladd@b,c
  4871  00247A  0E00               	movlw	0
  4872  00247C  6E20               	movwf	___fladd@b+1,c
  4873  00247E  0E00               	movlw	0
  4874  002480  6E21               	movwf	___fladd@b+2,c
  4875  002482  0E00               	movlw	0
  4876  002484  6E22               	movwf	___fladd@b+3,c
  4877  002486  C02C  F02D         	movff	___fladd@aexp,___fladd@bexp
  4878  00248A  D015               	goto	u2250
  4879  00248C                     l665:
  4880  00248C  A02E               	btfss	___fladd@grs,0,c
  4881  00248E  D005               	goto	l2680
  4882  002490  90D8               	bcf	status,0,c
  4883  002492  302E               	rrcf	___fladd@grs,w,c
  4884  002494  0901               	iorlw	1
  4885  002496  6E2E               	movwf	___fladd@grs,c
  4886  002498  D002               	goto	l2682
  4887  00249A                     l2680:
  4888  00249A  90D8               	bcf	status,0,c
  4889  00249C  322E               	rrcf	___fladd@grs,f,c
  4890  00249E                     l2682:
  4891  00249E  B01F               	btfsc	___fladd@b,0,c
  4892  0024A0  8E2E               	bsf	___fladd@grs,7,c
  4893  0024A2  3422               	rlcf	___fladd@b+3,w,c
  4894  0024A4  3222               	rrcf	___fladd@b+3,f,c
  4895  0024A6  3221               	rrcf	___fladd@b+2,f,c
  4896  0024A8  3220               	rrcf	___fladd@b+1,f,c
  4897  0024AA  321F               	rrcf	___fladd@b,f,c
  4898  0024AC  2A2D               	incf	___fladd@bexp,f,c
  4899  0024AE                     l664:
  4900  0024AE  502C               	movf	___fladd@aexp,w,c
  4901  0024B0  5C2D               	subwf	___fladd@bexp,w,c
  4902  0024B2  A0D8               	btfss	status,0,c
  4903  0024B4  D7EB               	goto	l665
  4904  0024B6                     u2250:
  4905  0024B6  BC2B               	btfsc	___fladd@signs,6,c
  4906  0024B8  D028               	goto	l2714
  4907  0024BA  502D               	movf	___fladd@bexp,w,c
  4908  0024BC  A4D8               	btfss	status,2,c
  4909  0024BE  D009               	goto	l2696
  4910  0024C0  0E00               	movlw	0
  4911  0024C2  6E1F               	movwf	?___fladd,c
  4912  0024C4  0E00               	movlw	0
  4913  0024C6  6E20               	movwf	?___fladd+1,c
  4914  0024C8  0E00               	movlw	0
  4915  0024CA  6E21               	movwf	?___fladd+2,c
  4916  0024CC  0E00               	movlw	0
  4917  0024CE  6E22               	movwf	?___fladd+3,c
  4918  0024D0  0012               	return	
  4919  0024D2                     l2696:
  4920  0024D2  5023               	movf	___fladd@a,w,c
  4921  0024D4  261F               	addwf	___fladd@b,f,c
  4922  0024D6  5024               	movf	___fladd@a+1,w,c
  4923  0024D8  2220               	addwfc	___fladd@b+1,f,c
  4924  0024DA  5025               	movf	___fladd@a+2,w,c
  4925  0024DC  2221               	addwfc	___fladd@b+2,f,c
  4926  0024DE  5026               	movf	___fladd@a+3,w,c
  4927  0024E0  2222               	addwfc	___fladd@b+3,f,c
  4928  0024E2  A022               	btfss	___fladd@b+3,0,c
  4929  0024E4  D071               	goto	u2380
  4930  0024E6  A02E               	btfss	___fladd@grs,0,c
  4931  0024E8  D005               	goto	l2704
  4932  0024EA  90D8               	bcf	status,0,c
  4933  0024EC  302E               	rrcf	___fladd@grs,w,c
  4934  0024EE  0901               	iorlw	1
  4935  0024F0  6E2E               	movwf	___fladd@grs,c
  4936  0024F2  D002               	goto	l2706
  4937  0024F4                     l2704:
  4938  0024F4  90D8               	bcf	status,0,c
  4939  0024F6  322E               	rrcf	___fladd@grs,f,c
  4940  0024F8                     l2706:
  4941  0024F8  B01F               	btfsc	___fladd@b,0,c
  4942  0024FA  8E2E               	bsf	___fladd@grs,7,c
  4943  0024FC  3422               	rlcf	___fladd@b+3,w,c
  4944  0024FE  3222               	rrcf	___fladd@b+3,f,c
  4945  002500  3221               	rrcf	___fladd@b+2,f,c
  4946  002502  3220               	rrcf	___fladd@b+1,f,c
  4947  002504  321F               	rrcf	___fladd@b,f,c
  4948  002506  2A2D               	incf	___fladd@bexp,f,c
  4949  002508  D05F               	goto	u2380
  4950  00250A                     l2714:
  4951  00250A  5023               	movf	___fladd@a,w,c
  4952  00250C  5C1F               	subwf	___fladd@b,w,c
  4953  00250E  5024               	movf	___fladd@a+1,w,c
  4954  002510  5820               	subwfb	___fladd@b+1,w,c
  4955  002512  5025               	movf	___fladd@a+2,w,c
  4956  002514  5821               	subwfb	___fladd@b+2,w,c
  4957  002516  5022               	movf	___fladd@b+3,w,c
  4958  002518  0A80               	xorlw	128
  4959  00251A  6E27               	movwf	??___fladd& (0+255),c
  4960  00251C  5026               	movf	___fladd@a+3,w,c
  4961  00251E  0A80               	xorlw	128
  4962  002520  5827               	subwfb	??___fladd& (0+255),w,c
  4963  002522  B0D8               	btfsc	status,0,c
  4964  002524  D025               	goto	l2724
  4965  002526  501F               	movf	___fladd@b,w,c
  4966  002528  5C23               	subwf	___fladd@a,w,c
  4967  00252A  6E27               	movwf	??___fladd& (0+255),c
  4968  00252C  5020               	movf	___fladd@b+1,w,c
  4969  00252E  5824               	subwfb	___fladd@a+1,w,c
  4970  002530  6E28               	movwf	(??___fladd+1)& (0+255),c
  4971  002532  5021               	movf	___fladd@b+2,w,c
  4972  002534  5825               	subwfb	___fladd@a+2,w,c
  4973  002536  6E29               	movwf	(??___fladd+2)& (0+255),c
  4974  002538  5022               	movf	___fladd@b+3,w,c
  4975  00253A  5826               	subwfb	___fladd@a+3,w,c
  4976  00253C  6E2A               	movwf	(??___fladd+3)& (0+255),c
  4977  00253E  0EFF               	movlw	255
  4978  002540  2427               	addwf	??___fladd,w,c
  4979  002542  6E1F               	movwf	___fladd@b,c
  4980  002544  0EFF               	movlw	255
  4981  002546  2028               	addwfc	??___fladd+1,w,c
  4982  002548  6E20               	movwf	___fladd@b+1,c
  4983  00254A  0EFF               	movlw	255
  4984  00254C  2029               	addwfc	??___fladd+2,w,c
  4985  00254E  6E21               	movwf	___fladd@b+2,c
  4986  002550  0EFF               	movlw	255
  4987  002552  202A               	addwfc	??___fladd+3,w,c
  4988  002554  6E22               	movwf	___fladd@b+3,c
  4989  002556  0E80               	movlw	128
  4990  002558  1A2B               	xorwf	___fladd@signs,f,c
  4991  00255A  6C2E               	negf	___fladd@grs,c
  4992  00255C  502E               	movf	___fladd@grs,w,c
  4993  00255E  A4D8               	btfss	status,2,c
  4994  002560  D00F               	goto	l680
  4995  002562  0E01               	movlw	1
  4996  002564  261F               	addwf	___fladd@b,f,c
  4997  002566  0E00               	movlw	0
  4998  002568  2220               	addwfc	___fladd@b+1,f,c
  4999  00256A  2221               	addwfc	___fladd@b+2,f,c
  5000  00256C  2222               	addwfc	___fladd@b+3,f,c
  5001  00256E  D008               	goto	l680
  5002  002570                     l2724:
  5003  002570  5023               	movf	___fladd@a,w,c
  5004  002572  5E1F               	subwf	___fladd@b,f,c
  5005  002574  5024               	movf	___fladd@a+1,w,c
  5006  002576  5A20               	subwfb	___fladd@b+1,f,c
  5007  002578  5025               	movf	___fladd@a+2,w,c
  5008  00257A  5A21               	subwfb	___fladd@b+2,f,c
  5009  00257C  5026               	movf	___fladd@a+3,w,c
  5010  00257E  5A22               	subwfb	___fladd@b+3,f,c
  5011  002580                     l680:
  5012  002580  501F               	movf	___fladd@b,w,c
  5013  002582  1020               	iorwf	___fladd@b+1,w,c
  5014  002584  1021               	iorwf	___fladd@b+2,w,c
  5015  002586  1022               	iorwf	___fladd@b+3,w,c
  5016  002588  A4D8               	btfss	status,2,c
  5017  00258A  D01C               	goto	l2748
  5018  00258C  502E               	movf	___fladd@grs,w,c
  5019  00258E  A4D8               	btfss	status,2,c
  5020  002590  D019               	goto	l2748
  5021  002592  0E00               	movlw	0
  5022  002594  6E1F               	movwf	?___fladd,c
  5023  002596  0E00               	movlw	0
  5024  002598  6E20               	movwf	?___fladd+1,c
  5025  00259A  0E00               	movlw	0
  5026  00259C  6E21               	movwf	?___fladd+2,c
  5027  00259E  0E00               	movlw	0
  5028  0025A0  6E22               	movwf	?___fladd+3,c
  5029  0025A2  0012               	return	
  5030  0025A4                     l2732:
  5031  0025A4  90D8               	bcf	status,0,c
  5032  0025A6  361F               	rlcf	___fladd@b,f,c
  5033  0025A8  3620               	rlcf	___fladd@b+1,f,c
  5034  0025AA  3621               	rlcf	___fladd@b+2,f,c
  5035  0025AC  3622               	rlcf	___fladd@b+3,f,c
  5036  0025AE  BE2E               	btfsc	___fladd@grs,7,c
  5037  0025B0  801F               	bsf	___fladd@b,0,c
  5038  0025B2  A02E               	btfss	___fladd@grs,0,c
  5039  0025B4  D002               	goto	l2742
  5040  0025B6  80D8               	bsf	status,0,c
  5041  0025B8  D001               	goto	L5
  5042  0025BA                     l2742:
  5043  0025BA  90D8               	bcf	status,0,c
  5044  0025BC                     L5:
  5045  0025BC  362E               	rlcf	___fladd@grs,f,c
  5046  0025BE  502D               	movf	___fladd@bexp,w,c
  5047  0025C0  A4D8               	btfss	status,2,c
  5048  0025C2  062D               	decf	___fladd@bexp,f,c
  5049  0025C4                     l2748:
  5050  0025C4  AE21               	btfss	___fladd@b+2,7,c
  5051  0025C6  D7EE               	goto	l2732
  5052  0025C8                     u2380:
  5053  0025C8  0E00               	movlw	0
  5054  0025CA  6E2C               	movwf	___fladd@aexp,c
  5055  0025CC  AE2E               	btfss	___fladd@grs,7,c
  5056  0025CE  D00B               	goto	l689
  5057  0025D0  C02E  F027         	movff	___fladd@grs,??___fladd
  5058  0025D4  0E7F               	movlw	127
  5059  0025D6  1627               	andwf	??___fladd,f,c
  5060  0025D8  B4D8               	btfsc	status,2,c
  5061  0025DA  D003               	goto	l690
  5062  0025DC                     u2400:
  5063  0025DC  0E01               	movlw	1
  5064  0025DE  6E2C               	movwf	___fladd@aexp,c
  5065  0025E0  D002               	goto	l689
  5066  0025E2                     l690:
  5067  0025E2  B01F               	btfsc	___fladd@b,0,c
  5068  0025E4  D7FB               	goto	u2400
  5069  0025E6                     l689:
  5070  0025E6  502C               	movf	___fladd@aexp,w,c
  5071  0025E8  B4D8               	btfsc	status,2,c
  5072  0025EA  D020               	goto	l2768
  5073  0025EC  0E01               	movlw	1
  5074  0025EE  261F               	addwf	___fladd@b,f,c
  5075  0025F0  0E00               	movlw	0
  5076  0025F2  2220               	addwfc	___fladd@b+1,f,c
  5077  0025F4  2221               	addwfc	___fladd@b+2,f,c
  5078  0025F6  2222               	addwfc	___fladd@b+3,f,c
  5079  0025F8  A022               	btfss	___fladd@b+3,0,c
  5080  0025FA  D018               	goto	l2768
  5081  0025FC  C01F  F027         	movff	___fladd@b,??___fladd
  5082  002600  C020  F028         	movff	___fladd@b+1,??___fladd+1
  5083  002604  C021  F029         	movff	___fladd@b+2,??___fladd+2
  5084  002608  C022  F02A         	movff	___fladd@b+3,??___fladd+3
  5085  00260C  342A               	rlcf	??___fladd+3,w,c
  5086  00260E  322A               	rrcf	??___fladd+3,f,c
  5087  002610  3229               	rrcf	??___fladd+2,f,c
  5088  002612  3228               	rrcf	??___fladd+1,f,c
  5089  002614  3227               	rrcf	??___fladd,f,c
  5090  002616  C027  F01F         	movff	??___fladd,___fladd@b
  5091  00261A  C028  F020         	movff	??___fladd+1,___fladd@b+1
  5092  00261E  C029  F021         	movff	??___fladd+2,___fladd@b+2
  5093  002622  C02A  F022         	movff	??___fladd+3,___fladd@b+3
  5094  002626  282D               	incf	___fladd@bexp,w,c
  5095  002628  A4D8               	btfss	status,2,c
  5096  00262A  2A2D               	incf	___fladd@bexp,f,c
  5097  00262C                     l2768:
  5098  00262C  282D               	incf	___fladd@bexp,w,c
  5099  00262E  B4D8               	btfsc	status,2,c
  5100  002630  D003               	goto	u2460
  5101  002632  502D               	movf	___fladd@bexp,w,c
  5102  002634  A4D8               	btfss	status,2,c
  5103  002636  D00D               	goto	l2776
  5104  002638                     u2460:
  5105  002638  0E00               	movlw	0
  5106  00263A  6E1F               	movwf	___fladd@b,c
  5107  00263C  0E00               	movlw	0
  5108  00263E  6E20               	movwf	___fladd@b+1,c
  5109  002640  0E00               	movlw	0
  5110  002642  6E21               	movwf	___fladd@b+2,c
  5111  002644  0E00               	movlw	0
  5112  002646  6E22               	movwf	___fladd@b+3,c
  5113  002648  502D               	movf	___fladd@bexp,w,c
  5114  00264A  A4D8               	btfss	status,2,c
  5115  00264C  D002               	goto	l2776
  5116  00264E  0E00               	movlw	0
  5117  002650  6E2B               	movwf	___fladd@signs,c
  5118  002652                     l2776:
  5119  002652  A02D               	btfss	___fladd@bexp,0,c
  5120  002654  D002               	goto	l2780
  5121  002656  8E21               	bsf	___fladd@b+2,7,c
  5122  002658  D001               	goto	l2782
  5123  00265A                     l2780:
  5124  00265A  9E21               	bcf	___fladd@b+2,7,c
  5125  00265C                     l2782:
  5126  00265C  90D8               	bcf	status,0,c
  5127  00265E  302D               	rrcf	___fladd@bexp,w,c
  5128  002660  6E22               	movwf	___fladd@b+3,c
  5129  002662  BE2B               	btfsc	___fladd@signs,7,c
  5130  002664  8E22               	bsf	___fladd@b+3,7,c
  5131  002666  C01F  F01F         	movff	___fladd@b,?___fladd
  5132  00266A  C020  F020         	movff	___fladd@b+1,?___fladd+1
  5133  00266E  C021  F021         	movff	___fladd@b+2,?___fladd+2
  5134  002672  C022  F022         	movff	___fladd@b+3,?___fladd+3
  5135  002676  0012               	return		;funcret
  5136  002678                     __end_of___fladd:
  5137                           	opt callstack 0
  5138                           
  5139 ;; *************** function ___flneg *****************
  5140 ;; Defined at:
  5141 ;;		line 15 in file "C:\Program Files (x86)\Microchip\xc8\v2.05\pic\sources\c99\common\flneg.c"
  5142 ;; Parameters:    Size  Location     Type
  5143 ;;  f1              4    0[COMRAM] unsigned char 
  5144 ;; Auto vars:     Size  Location     Type
  5145 ;;		None
  5146 ;; Return value:  Size  Location     Type
  5147 ;;                  4    0[COMRAM] unsigned char 
  5148 ;; Registers used:
  5149 ;;		wreg, status,2, status,0
  5150 ;; Tracked objects:
  5151 ;;		On entry : 0/0
  5152 ;;		On exit  : 0/0
  5153 ;;		Unchanged: 0/0
  5154 ;; Data sizes:     COMRAM   BANK0   BANK1   BANK2   BANK3   BANK4   BANK5
  5155 ;;      Params:         4       0       0       0       0       0       0
  5156 ;;      Locals:         0       0       0       0       0       0       0
  5157 ;;      Temps:          0       0       0       0       0       0       0
  5158 ;;      Totals:         4       0       0       0       0       0       0
  5159 ;;Total ram usage:        4 bytes
  5160 ;; Hardware stack levels used:    1
  5161 ;; This function calls:
  5162 ;;		Nothing
  5163 ;; This function is called by:
  5164 ;;		_atan2f
  5165 ;;		_atanf
  5166 ;; This function uses a non-reentrant model
  5167 ;;
  5168                           
  5169                           	psect	text16
  5170  003114                     __ptext16:
  5171                           	opt callstack 0
  5172  003114                     ___flneg:
  5173                           	opt callstack 27
  5174                           
  5175                           ;incstack = 0
  5176  003114  5001               	movf	___flneg@f1,w,c
  5177  003116  1002               	iorwf	___flneg@f1+1,w,c
  5178  003118  1003               	iorwf	___flneg@f1+2,w,c
  5179  00311A  1004               	iorwf	___flneg@f1+3,w,c
  5180  00311C  B4D8               	btfsc	status,2,c
  5181  00311E  D008               	goto	l3102
  5182  003120  0E00               	movlw	0
  5183  003122  1A01               	xorwf	___flneg@f1,f,c
  5184  003124  0E00               	movlw	0
  5185  003126  1A02               	xorwf	___flneg@f1+1,f,c
  5186  003128  0E00               	movlw	0
  5187  00312A  1A03               	xorwf	___flneg@f1+2,f,c
  5188  00312C  0E80               	movlw	128
  5189  00312E  1A04               	xorwf	___flneg@f1+3,f,c
  5190  003130                     l3102:
  5191  003130  C001  F001         	movff	___flneg@f1,?___flneg
  5192  003134  C002  F002         	movff	___flneg@f1+1,?___flneg+1
  5193  003138  C003  F003         	movff	___flneg@f1+2,?___flneg+2
  5194  00313C  C004  F004         	movff	___flneg@f1+3,?___flneg+3
  5195  003140  0012               	return		;funcret
  5196  003142                     __end_of___flneg:
  5197                           	opt callstack 0
  5198                           
  5199 ;; *************** function ___flmul *****************
  5200 ;; Defined at:
  5201 ;;		line 8 in file "C:\Program Files (x86)\Microchip\xc8\v2.05\pic\sources\c99\common\sprcmul.c"
  5202 ;; Parameters:    Size  Location     Type
  5203 ;;  b               4    0[COMRAM] unsigned char 
  5204 ;;  a               4    4[COMRAM] unsigned char 
  5205 ;; Auto vars:     Size  Location     Type
  5206 ;;  prod            4   19[COMRAM] struct .
  5207 ;;  grs             4   13[COMRAM] unsigned long 
  5208 ;;  temp            2   23[COMRAM] struct .
  5209 ;;  bexp            1   18[COMRAM] unsigned char 
  5210 ;;  aexp            1   17[COMRAM] unsigned char 
  5211 ;;  sign            1   12[COMRAM] unsigned char 
  5212 ;; Return value:  Size  Location     Type
  5213 ;;                  4    0[COMRAM] unsigned char 
  5214 ;; Registers used:
  5215 ;;		wreg, status,2, status,0, prodl, prodh
  5216 ;; Tracked objects:
  5217 ;;		On entry : 0/0
  5218 ;;		On exit  : 0/0
  5219 ;;		Unchanged: 0/0
  5220 ;; Data sizes:     COMRAM   BANK0   BANK1   BANK2   BANK3   BANK4   BANK5
  5221 ;;      Params:         8       0       0       0       0       0       0
  5222 ;;      Locals:        13       0       0       0       0       0       0
  5223 ;;      Temps:          4       0       0       0       0       0       0
  5224 ;;      Totals:        25       0       0       0       0       0       0
  5225 ;;Total ram usage:       25 bytes
  5226 ;; Hardware stack levels used:    1
  5227 ;; This function calls:
  5228 ;;		Nothing
  5229 ;; This function is called by:
  5230 ;;		_readSensors_old
  5231 ;;		_atanf
  5232 ;;		_sqrtf
  5233 ;; This function uses a non-reentrant model
  5234 ;;
  5235                           
  5236                           	psect	text17
  5237  00201A                     __ptext17:
  5238                           	opt callstack 0
  5239  00201A                     ___flmul:
  5240                           	opt callstack 28
  5241                           
  5242                           ;incstack = 0
  5243  00201A  5004               	movf	___flmul@b+3,w,c
  5244  00201C  0B80               	andlw	128
  5245  00201E  6E0D               	movwf	___flmul@sign,c
  5246  002020  5004               	movf	___flmul@b+3,w,c
  5247  002022  2404               	addwf	___flmul@b+3,w,c
  5248  002024  6E13               	movwf	___flmul@bexp,c
  5249  002026  BE03               	btfsc	___flmul@b+2,7,c
  5250  002028  8013               	bsf	___flmul@bexp,0,c
  5251  00202A  5013               	movf	___flmul@bexp,w,c
  5252  00202C  B4D8               	btfsc	status,2,c
  5253  00202E  D00D               	goto	l2976
  5254  002030  2813               	incf	___flmul@bexp,w,c
  5255  002032  A4D8               	btfss	status,2,c
  5256  002034  D008               	goto	l2974
  5257  002036  0E00               	movlw	0
  5258  002038  6E01               	movwf	___flmul@b,c
  5259  00203A  0E00               	movlw	0
  5260  00203C  6E02               	movwf	___flmul@b+1,c
  5261  00203E  0E00               	movlw	0
  5262  002040  6E03               	movwf	___flmul@b+2,c
  5263  002042  0E00               	movlw	0
  5264  002044  6E04               	movwf	___flmul@b+3,c
  5265  002046                     l2974:
  5266  002046  8E03               	bsf	___flmul@b+2,7,c
  5267  002048  D008               	goto	l2978
  5268  00204A                     l2976:
  5269  00204A  0E00               	movlw	0
  5270  00204C  6E01               	movwf	___flmul@b,c
  5271  00204E  0E00               	movlw	0
  5272  002050  6E02               	movwf	___flmul@b+1,c
  5273  002052  0E00               	movlw	0
  5274  002054  6E03               	movwf	___flmul@b+2,c
  5275  002056  0E00               	movlw	0
  5276  002058  6E04               	movwf	___flmul@b+3,c
  5277  00205A                     l2978:
  5278  00205A  5008               	movf	___flmul@a+3,w,c
  5279  00205C  0B80               	andlw	128
  5280  00205E  1A0D               	xorwf	___flmul@sign,f,c
  5281  002060  5008               	movf	___flmul@a+3,w,c
  5282  002062  2408               	addwf	___flmul@a+3,w,c
  5283  002064  6E12               	movwf	___flmul@aexp,c
  5284  002066  BE07               	btfsc	___flmul@a+2,7,c
  5285  002068  8012               	bsf	___flmul@aexp,0,c
  5286  00206A  5012               	movf	___flmul@aexp,w,c
  5287  00206C  B4D8               	btfsc	status,2,c
  5288  00206E  D00D               	goto	l2994
  5289  002070  2812               	incf	___flmul@aexp,w,c
  5290  002072  A4D8               	btfss	status,2,c
  5291  002074  D008               	goto	l2992
  5292  002076  0E00               	movlw	0
  5293  002078  6E05               	movwf	___flmul@a,c
  5294  00207A  0E00               	movlw	0
  5295  00207C  6E06               	movwf	___flmul@a+1,c
  5296  00207E  0E00               	movlw	0
  5297  002080  6E07               	movwf	___flmul@a+2,c
  5298  002082  0E00               	movlw	0
  5299  002084  6E08               	movwf	___flmul@a+3,c
  5300  002086                     l2992:
  5301  002086  8E07               	bsf	___flmul@a+2,7,c
  5302  002088  D008               	goto	l749
  5303  00208A                     l2994:
  5304  00208A  0E00               	movlw	0
  5305  00208C  6E05               	movwf	___flmul@a,c
  5306  00208E  0E00               	movlw	0
  5307  002090  6E06               	movwf	___flmul@a+1,c
  5308  002092  0E00               	movlw	0
  5309  002094  6E07               	movwf	___flmul@a+2,c
  5310  002096  0E00               	movlw	0
  5311  002098  6E08               	movwf	___flmul@a+3,c
  5312  00209A                     l749:
  5313  00209A  5012               	movf	___flmul@aexp,w,c
  5314  00209C  B4D8               	btfsc	status,2,c
  5315  00209E  D003               	goto	u2820
  5316  0020A0  5013               	movf	___flmul@bexp,w,c
  5317  0020A2  A4D8               	btfss	status,2,c
  5318  0020A4  D009               	goto	l3002
  5319  0020A6                     u2820:
  5320  0020A6  0E00               	movlw	0
  5321  0020A8  6E01               	movwf	?___flmul,c
  5322  0020AA  0E00               	movlw	0
  5323  0020AC  6E02               	movwf	?___flmul+1,c
  5324  0020AE  0E00               	movlw	0
  5325  0020B0  6E03               	movwf	?___flmul+2,c
  5326  0020B2  0E00               	movlw	0
  5327  0020B4  6E04               	movwf	?___flmul+3,c
  5328  0020B6  0012               	return	
  5329  0020B8                     l3002:
  5330  0020B8  5007               	movf	___flmul@a+2,w,c
  5331  0020BA  0201               	mulwf	___flmul@b,c
  5332  0020BC  CFF3 F018          	movff	prodl,___flmul@temp
  5333  0020C0  CFF4 F019          	movff	prodh,___flmul@temp+1
  5334  0020C4  5018               	movf	___flmul@temp,w,c
  5335  0020C6  6E0E               	movwf	___flmul@grs,c
  5336  0020C8  6A0F               	clrf	___flmul@grs+1,c
  5337  0020CA  6A10               	clrf	___flmul@grs+2,c
  5338  0020CC  6A11               	clrf	___flmul@grs+3,c
  5339  0020CE  5019               	movf	___flmul@temp+1,w,c
  5340  0020D0  6E14               	movwf	___flmul@prod,c
  5341  0020D2  6A15               	clrf	___flmul@prod+1,c
  5342  0020D4  6A16               	clrf	___flmul@prod+2,c
  5343  0020D6  6A17               	clrf	___flmul@prod+3,c
  5344  0020D8  5006               	movf	___flmul@a+1,w,c
  5345  0020DA  0202               	mulwf	___flmul@b+1,c
  5346  0020DC  CFF3 F018          	movff	prodl,___flmul@temp
  5347  0020E0  CFF4 F019          	movff	prodh,___flmul@temp+1
  5348  0020E4  5018               	movf	___flmul@temp,w,c
  5349  0020E6  260E               	addwf	___flmul@grs,f,c
  5350  0020E8  0E00               	movlw	0
  5351  0020EA  220F               	addwfc	___flmul@grs+1,f,c
  5352  0020EC  2210               	addwfc	___flmul@grs+2,f,c
  5353  0020EE  2211               	addwfc	___flmul@grs+3,f,c
  5354  0020F0  5019               	movf	___flmul@temp+1,w,c
  5355  0020F2  2614               	addwf	___flmul@prod,f,c
  5356  0020F4  0E00               	movlw	0
  5357  0020F6  2215               	addwfc	___flmul@prod+1,f,c
  5358  0020F8  2216               	addwfc	___flmul@prod+2,f,c
  5359  0020FA  2217               	addwfc	___flmul@prod+3,f,c
  5360  0020FC  5005               	movf	___flmul@a,w,c
  5361  0020FE  0203               	mulwf	___flmul@b+2,c
  5362  002100  CFF3 F018          	movff	prodl,___flmul@temp
  5363  002104  CFF4 F019          	movff	prodh,___flmul@temp+1
  5364  002108  5018               	movf	___flmul@temp,w,c
  5365  00210A  260E               	addwf	___flmul@grs,f,c
  5366  00210C  0E00               	movlw	0
  5367  00210E  220F               	addwfc	___flmul@grs+1,f,c
  5368  002110  2210               	addwfc	___flmul@grs+2,f,c
  5369  002112  2211               	addwfc	___flmul@grs+3,f,c
  5370  002114  5019               	movf	___flmul@temp+1,w,c
  5371  002116  2614               	addwf	___flmul@prod,f,c
  5372  002118  0E00               	movlw	0
  5373  00211A  2215               	addwfc	___flmul@prod+1,f,c
  5374  00211C  2216               	addwfc	___flmul@prod+2,f,c
  5375  00211E  2217               	addwfc	___flmul@prod+3,f,c
  5376  002120  C010  F011         	movff	___flmul@grs+2,___flmul@grs+3
  5377  002124  C00F  F010         	movff	___flmul@grs+1,___flmul@grs+2
  5378  002128  C00E  F00F         	movff	___flmul@grs,___flmul@grs+1
  5379  00212C  6A0E               	clrf	___flmul@grs,c
  5380  00212E  5005               	movf	___flmul@a,w,c
  5381  002130  0202               	mulwf	___flmul@b+1,c
  5382  002132  CFF3 F018          	movff	prodl,___flmul@temp
  5383  002136  CFF4 F019          	movff	prodh,___flmul@temp+1
  5384  00213A  5018               	movf	___flmul@temp,w,c
  5385  00213C  260E               	addwf	___flmul@grs,f,c
  5386  00213E  5019               	movf	___flmul@temp+1,w,c
  5387  002140  220F               	addwfc	___flmul@grs+1,f,c
  5388  002142  0E00               	movlw	0
  5389  002144  2210               	addwfc	___flmul@grs+2,f,c
  5390  002146  0E00               	movlw	0
  5391  002148  2211               	addwfc	___flmul@grs+3,f,c
  5392  00214A  5006               	movf	___flmul@a+1,w,c
  5393  00214C  0201               	mulwf	___flmul@b,c
  5394  00214E  CFF3 F018          	movff	prodl,___flmul@temp
  5395  002152  CFF4 F019          	movff	prodh,___flmul@temp+1
  5396  002156  5018               	movf	___flmul@temp,w,c
  5397  002158  260E               	addwf	___flmul@grs,f,c
  5398  00215A  5019               	movf	___flmul@temp+1,w,c
  5399  00215C  220F               	addwfc	___flmul@grs+1,f,c
  5400  00215E  0E00               	movlw	0
  5401  002160  2210               	addwfc	___flmul@grs+2,f,c
  5402  002162  0E00               	movlw	0
  5403  002164  2211               	addwfc	___flmul@grs+3,f,c
  5404  002166  C010  F011         	movff	___flmul@grs+2,___flmul@grs+3
  5405  00216A  C00F  F010         	movff	___flmul@grs+1,___flmul@grs+2
  5406  00216E  C00E  F00F         	movff	___flmul@grs,___flmul@grs+1
  5407  002172  6A0E               	clrf	___flmul@grs,c
  5408  002174  5005               	movf	___flmul@a,w,c
  5409  002176  0201               	mulwf	___flmul@b,c
  5410  002178  CFF3 F018          	movff	prodl,___flmul@temp
  5411  00217C  CFF4 F019          	movff	prodh,___flmul@temp+1
  5412  002180  5018               	movf	___flmul@temp,w,c
  5413  002182  260E               	addwf	___flmul@grs,f,c
  5414  002184  5019               	movf	___flmul@temp+1,w,c
  5415  002186  220F               	addwfc	___flmul@grs+1,f,c
  5416  002188  0E00               	movlw	0
  5417  00218A  2210               	addwfc	___flmul@grs+2,f,c
  5418  00218C  0E00               	movlw	0
  5419  00218E  2211               	addwfc	___flmul@grs+3,f,c
  5420  002190  5007               	movf	___flmul@a+2,w,c
  5421  002192  0202               	mulwf	___flmul@b+1,c
  5422  002194  CFF3 F018          	movff	prodl,___flmul@temp
  5423  002198  CFF4 F019          	movff	prodh,___flmul@temp+1
  5424  00219C  5018               	movf	___flmul@temp,w,c
  5425  00219E  2614               	addwf	___flmul@prod,f,c
  5426  0021A0  5019               	movf	___flmul@temp+1,w,c
  5427  0021A2  2215               	addwfc	___flmul@prod+1,f,c
  5428  0021A4  0E00               	movlw	0
  5429  0021A6  2216               	addwfc	___flmul@prod+2,f,c
  5430  0021A8  0E00               	movlw	0
  5431  0021AA  2217               	addwfc	___flmul@prod+3,f,c
  5432  0021AC  5006               	movf	___flmul@a+1,w,c
  5433  0021AE  0203               	mulwf	___flmul@b+2,c
  5434  0021B0  CFF3 F018          	movff	prodl,___flmul@temp
  5435  0021B4  CFF4 F019          	movff	prodh,___flmul@temp+1
  5436  0021B8  5018               	movf	___flmul@temp,w,c
  5437  0021BA  2614               	addwf	___flmul@prod,f,c
  5438  0021BC  5019               	movf	___flmul@temp+1,w,c
  5439  0021BE  2215               	addwfc	___flmul@prod+1,f,c
  5440  0021C0  0E00               	movlw	0
  5441  0021C2  2216               	addwfc	___flmul@prod+2,f,c
  5442  0021C4  0E00               	movlw	0
  5443  0021C6  2217               	addwfc	___flmul@prod+3,f,c
  5444  0021C8  5007               	movf	___flmul@a+2,w,c
  5445  0021CA  0203               	mulwf	___flmul@b+2,c
  5446  0021CC  CFF3 F018          	movff	prodl,___flmul@temp
  5447  0021D0  CFF4 F019          	movff	prodh,___flmul@temp+1
  5448  0021D4  5018               	movf	___flmul@temp,w,c
  5449  0021D6  6E09               	movwf	??___flmul& (0+255),c
  5450  0021D8  5019               	movf	___flmul@temp+1,w,c
  5451  0021DA  6E0A               	movwf	(??___flmul+1)& (0+255),c
  5452  0021DC  6A0B               	clrf	(??___flmul+2)& (0+255),c
  5453  0021DE  6A0C               	clrf	(??___flmul+3)& (0+255),c
  5454  0021E0  C00B  F00C         	movff	??___flmul+2,??___flmul+3
  5455  0021E4  C00A  F00B         	movff	??___flmul+1,??___flmul+2
  5456  0021E8  C009  F00A         	movff	??___flmul,??___flmul+1
  5457  0021EC  6A09               	clrf	??___flmul,c
  5458  0021EE  5009               	movf	??___flmul,w,c
  5459  0021F0  2614               	addwf	___flmul@prod,f,c
  5460  0021F2  500A               	movf	??___flmul+1,w,c
  5461  0021F4  2215               	addwfc	___flmul@prod+1,f,c
  5462  0021F6  500B               	movf	??___flmul+2,w,c
  5463  0021F8  2216               	addwfc	___flmul@prod+2,f,c
  5464  0021FA  500C               	movf	??___flmul+3,w,c
  5465  0021FC  2217               	addwfc	___flmul@prod+3,f,c
  5466  0021FE  C00E  F009         	movff	___flmul@grs,??___flmul
  5467  002202  C00F  F00A         	movff	___flmul@grs+1,??___flmul+1
  5468  002206  C010  F00B         	movff	___flmul@grs+2,??___flmul+2
  5469  00220A  C011  F00C         	movff	___flmul@grs+3,??___flmul+3
  5470  00220E  0E19               	movlw	25
  5471  002210  D005               	goto	u2830
  5472  002212                     u2835:
  5473  002212  90D8               	bcf	status,0,c
  5474  002214  320C               	rrcf	??___flmul+3,f,c
  5475  002216  320B               	rrcf	??___flmul+2,f,c
  5476  002218  320A               	rrcf	??___flmul+1,f,c
  5477  00221A  3209               	rrcf	??___flmul,f,c
  5478  00221C                     u2830:
  5479  00221C  2EE8               	decfsz	wreg,f,c
  5480  00221E  D7F9               	goto	u2835
  5481  002220  5009               	movf	??___flmul,w,c
  5482  002222  2614               	addwf	___flmul@prod,f,c
  5483  002224  500A               	movf	??___flmul+1,w,c
  5484  002226  2215               	addwfc	___flmul@prod+1,f,c
  5485  002228  500B               	movf	??___flmul+2,w,c
  5486  00222A  2216               	addwfc	___flmul@prod+2,f,c
  5487  00222C  500C               	movf	??___flmul+3,w,c
  5488  00222E  2217               	addwfc	___flmul@prod+3,f,c
  5489  002230  C010  F011         	movff	___flmul@grs+2,___flmul@grs+3
  5490  002234  C00F  F010         	movff	___flmul@grs+1,___flmul@grs+2
  5491  002238  C00E  F00F         	movff	___flmul@grs,___flmul@grs+1
  5492  00223C  6A0E               	clrf	___flmul@grs,c
  5493  00223E  5012               	movf	___flmul@aexp,w,c
  5494  002240  C013  F009         	movff	___flmul@bexp,??___flmul
  5495  002244  6A0A               	clrf	(??___flmul+1)& (0+255),c
  5496  002246  2609               	addwf	??___flmul,f,c
  5497  002248  0E00               	movlw	0
  5498  00224A  220A               	addwfc	??___flmul+1,f,c
  5499  00224C  0E82               	movlw	130
  5500  00224E  2409               	addwf	??___flmul,w,c
  5501  002250  6E18               	movwf	___flmul@temp,c
  5502  002252  0EFF               	movlw	255
  5503  002254  200A               	addwfc	??___flmul+1,w,c
  5504  002256  6E19               	movwf	___flmul@temp+1,c
  5505  002258  D00F               	goto	l3050
  5506  00225A                     l3044:
  5507  00225A  90D8               	bcf	status,0,c
  5508  00225C  3614               	rlcf	___flmul@prod,f,c
  5509  00225E  3615               	rlcf	___flmul@prod+1,f,c
  5510  002260  3616               	rlcf	___flmul@prod+2,f,c
  5511  002262  3617               	rlcf	___flmul@prod+3,f,c
  5512  002264  BE11               	btfsc	___flmul@grs+3,7,c
  5513  002266  8014               	bsf	___flmul@prod,0,c
  5514  002268  90D8               	bcf	status,0,c
  5515  00226A  360E               	rlcf	___flmul@grs,f,c
  5516  00226C  360F               	rlcf	___flmul@grs+1,f,c
  5517  00226E  3610               	rlcf	___flmul@grs+2,f,c
  5518  002270  3611               	rlcf	___flmul@grs+3,f,c
  5519  002272  0618               	decf	___flmul@temp,f,c
  5520  002274  A0D8               	btfss	status,0,c
  5521  002276  0619               	decf	___flmul@temp+1,f,c
  5522  002278                     l3050:
  5523  002278  AE16               	btfss	___flmul@prod+2,7,c
  5524  00227A  D7EF               	goto	l3044
  5525  00227C  0E00               	movlw	0
  5526  00227E  6E12               	movwf	___flmul@aexp,c
  5527  002280  AE11               	btfss	___flmul@grs+3,7,c
  5528  002282  D017               	goto	l758
  5529  002284  0EFF               	movlw	255
  5530  002286  140E               	andwf	___flmul@grs,w,c
  5531  002288  6E09               	movwf	??___flmul& (0+255),c
  5532  00228A  0EFF               	movlw	255
  5533  00228C  140F               	andwf	___flmul@grs+1,w,c
  5534  00228E  6E0A               	movwf	(??___flmul+1)& (0+255),c
  5535  002290  0EFF               	movlw	255
  5536  002292  1410               	andwf	___flmul@grs+2,w,c
  5537  002294  6E0B               	movwf	(??___flmul+2)& (0+255),c
  5538  002296  0E7F               	movlw	127
  5539  002298  1411               	andwf	___flmul@grs+3,w,c
  5540  00229A  6E0C               	movwf	(??___flmul+3)& (0+255),c
  5541  00229C  5009               	movf	??___flmul,w,c
  5542  00229E  100A               	iorwf	??___flmul+1,w,c
  5543  0022A0  100B               	iorwf	??___flmul+2,w,c
  5544  0022A2  100C               	iorwf	??___flmul+3,w,c
  5545  0022A4  B4D8               	btfsc	status,2,c
  5546  0022A6  D003               	goto	l759
  5547  0022A8                     u2870:
  5548  0022A8  0E01               	movlw	1
  5549  0022AA  6E12               	movwf	___flmul@aexp,c
  5550  0022AC  D002               	goto	l758
  5551  0022AE                     l759:
  5552  0022AE  B014               	btfsc	___flmul@prod,0,c
  5553  0022B0  D7FB               	goto	u2870
  5554  0022B2                     l758:
  5555  0022B2  5012               	movf	___flmul@aexp,w,c
  5556  0022B4  B4D8               	btfsc	status,2,c
  5557  0022B6  D01F               	goto	l3070
  5558  0022B8  0E01               	movlw	1
  5559  0022BA  2614               	addwf	___flmul@prod,f,c
  5560  0022BC  0E00               	movlw	0
  5561  0022BE  2215               	addwfc	___flmul@prod+1,f,c
  5562  0022C0  2216               	addwfc	___flmul@prod+2,f,c
  5563  0022C2  2217               	addwfc	___flmul@prod+3,f,c
  5564  0022C4  A017               	btfss	___flmul@prod+3,0,c
  5565  0022C6  D017               	goto	l3070
  5566  0022C8  C014  F009         	movff	___flmul@prod,??___flmul
  5567  0022CC  C015  F00A         	movff	___flmul@prod+1,??___flmul+1
  5568  0022D0  C016  F00B         	movff	___flmul@prod+2,??___flmul+2
  5569  0022D4  C017  F00C         	movff	___flmul@prod+3,??___flmul+3
  5570  0022D8  340C               	rlcf	??___flmul+3,w,c
  5571  0022DA  320C               	rrcf	??___flmul+3,f,c
  5572  0022DC  320B               	rrcf	??___flmul+2,f,c
  5573  0022DE  320A               	rrcf	??___flmul+1,f,c
  5574  0022E0  3209               	rrcf	??___flmul,f,c
  5575  0022E2  C009  F014         	movff	??___flmul,___flmul@prod
  5576  0022E6  C00A  F015         	movff	??___flmul+1,___flmul@prod+1
  5577  0022EA  C00B  F016         	movff	??___flmul+2,___flmul@prod+2
  5578  0022EE  C00C  F017         	movff	??___flmul+3,___flmul@prod+3
  5579  0022F2  4A18               	infsnz	___flmul@temp,f,c
  5580  0022F4  2A19               	incf	___flmul@temp+1,f,c
  5581  0022F6                     l3070:
  5582  0022F6  BE19               	btfsc	___flmul@temp+1,7,c
  5583  0022F8  D00D               	goto	l3074
  5584  0022FA  5019               	movf	___flmul@temp+1,w,c
  5585  0022FC  E103               	bnz	u2910
  5586  0022FE  2818               	incf	___flmul@temp,w,c
  5587  002300  A0D8               	btfss	status,0,c
  5588  002302  D008               	goto	l3074
  5589  002304                     u2910:
  5590  002304  0E00               	movlw	0
  5591  002306  6E14               	movwf	___flmul@prod,c
  5592  002308  0E00               	movlw	0
  5593  00230A  6E15               	movwf	___flmul@prod+1,c
  5594  00230C  0E80               	movlw	128
  5595  00230E  6E16               	movwf	___flmul@prod+2,c
  5596  002310  0E7F               	movlw	127
  5597  002312  D020               	goto	L6
  5598  002314                     l3074:
  5599  002314  BE19               	btfsc	___flmul@temp+1,7,c
  5600  002316  D005               	goto	u2920
  5601  002318  5019               	movf	___flmul@temp+1,w,c
  5602  00231A  E10E               	bnz	l766
  5603  00231C  0418               	decf	___flmul@temp,w,c
  5604  00231E  B0D8               	btfsc	status,0,c
  5605  002320  D00B               	goto	l766
  5606  002322                     u2920:
  5607  002322  0E00               	movlw	0
  5608  002324  6E14               	movwf	___flmul@prod,c
  5609  002326  0E00               	movlw	0
  5610  002328  6E15               	movwf	___flmul@prod+1,c
  5611  00232A  0E00               	movlw	0
  5612  00232C  6E16               	movwf	___flmul@prod+2,c
  5613  00232E  0E00               	movlw	0
  5614  002330  6E17               	movwf	___flmul@prod+3,c
  5615  002332  0E00               	movlw	0
  5616  002334  6E0D               	movwf	___flmul@sign,c
  5617  002336  D00F               	goto	l3086
  5618  002338                     l766:
  5619  002338  C018  F013         	movff	___flmul@temp,___flmul@bexp
  5620  00233C  0EFF               	movlw	255
  5621  00233E  1614               	andwf	___flmul@prod,f,c
  5622  002340  0EFF               	movlw	255
  5623  002342  1615               	andwf	___flmul@prod+1,f,c
  5624  002344  0E7F               	movlw	127
  5625  002346  1616               	andwf	___flmul@prod+2,f,c
  5626  002348  0E00               	movlw	0
  5627  00234A  1617               	andwf	___flmul@prod+3,f,c
  5628  00234C  B013               	btfsc	___flmul@bexp,0,c
  5629  00234E  8E16               	bsf	___flmul@prod+2,7,c
  5630  002350  90D8               	bcf	status,0,c
  5631  002352  3013               	rrcf	___flmul@bexp,w,c
  5632  002354                     L6:
  5633  002354  6E17               	movwf	___flmul@prod+3,c
  5634  002356                     l3086:
  5635  002356  500D               	movf	___flmul@sign,w,c
  5636  002358  1217               	iorwf	___flmul@prod+3,f,c
  5637  00235A  C014  F001         	movff	___flmul@prod,?___flmul
  5638  00235E  C015  F002         	movff	___flmul@prod+1,?___flmul+1
  5639  002362  C016  F003         	movff	___flmul@prod+2,?___flmul+2
  5640  002366  C017  F004         	movff	___flmul@prod+3,?___flmul+3
  5641  00236A  0012               	return		;funcret
  5642  00236C                     __end_of___flmul:
  5643                           	opt callstack 0
  5644                           
  5645 ;; *************** function ___fldiv *****************
  5646 ;; Defined at:
  5647 ;;		line 11 in file "C:\Program Files (x86)\Microchip\xc8\v2.05\pic\sources\c99\common\sprcdiv.c"
  5648 ;; Parameters:    Size  Location     Type
  5649 ;;  b               4   46[COMRAM] unsigned char 
  5650 ;;  a               4   50[COMRAM] unsigned char 
  5651 ;; Auto vars:     Size  Location     Type
  5652 ;;  grs             4   65[COMRAM] unsigned long 
  5653 ;;  rem             4   58[COMRAM] unsigned long 
  5654 ;;  new_exp         2   63[COMRAM] short 
  5655 ;;  aexp            1   70[COMRAM] unsigned char 
  5656 ;;  bexp            1   69[COMRAM] unsigned char 
  5657 ;;  sign            1   62[COMRAM] unsigned char 
  5658 ;; Return value:  Size  Location     Type
  5659 ;;                  4   46[COMRAM] unsigned char 
  5660 ;; Registers used:
  5661 ;;		wreg, status,2, status,0
  5662 ;; Tracked objects:
  5663 ;;		On entry : 0/0
  5664 ;;		On exit  : 0/0
  5665 ;;		Unchanged: 0/0
  5666 ;; Data sizes:     COMRAM   BANK0   BANK1   BANK2   BANK3   BANK4   BANK5
  5667 ;;      Params:         8       0       0       0       0       0       0
  5668 ;;      Locals:        13       0       0       0       0       0       0
  5669 ;;      Temps:          4       0       0       0       0       0       0
  5670 ;;      Totals:        25       0       0       0       0       0       0
  5671 ;;Total ram usage:       25 bytes
  5672 ;; Hardware stack levels used:    1
  5673 ;; This function calls:
  5674 ;;		Nothing
  5675 ;; This function is called by:
  5676 ;;		_readSensors_old
  5677 ;;		_atan2f
  5678 ;;		_atanf
  5679 ;; This function uses a non-reentrant model
  5680 ;;
  5681                           
  5682                           	psect	text18
  5683  002678                     __ptext18:
  5684                           	opt callstack 0
  5685  002678                     ___fldiv:
  5686                           	opt callstack 27
  5687                           
  5688                           ;incstack = 0
  5689  002678  5032               	movf	___fldiv@b+3,w,c
  5690  00267A  0B80               	andlw	128
  5691  00267C  6E3F               	movwf	___fldiv@sign,c
  5692  00267E  5032               	movf	___fldiv@b+3,w,c
  5693  002680  2432               	addwf	___fldiv@b+3,w,c
  5694  002682  6E46               	movwf	___fldiv@bexp,c
  5695  002684  BE31               	btfsc	___fldiv@b+2,7,c
  5696  002686  8046               	bsf	___fldiv@bexp,0,c
  5697  002688  5046               	movf	___fldiv@bexp,w,c
  5698  00268A  B4D8               	btfsc	status,2,c
  5699  00268C  D00D               	goto	l2840
  5700  00268E  2846               	incf	___fldiv@bexp,w,c
  5701  002690  A4D8               	btfss	status,2,c
  5702  002692  D008               	goto	l2836
  5703  002694  0E00               	movlw	0
  5704  002696  6E2F               	movwf	___fldiv@b,c
  5705  002698  0E00               	movlw	0
  5706  00269A  6E30               	movwf	___fldiv@b+1,c
  5707  00269C  0E00               	movlw	0
  5708  00269E  6E31               	movwf	___fldiv@b+2,c
  5709  0026A0  0E00               	movlw	0
  5710  0026A2  6E32               	movwf	___fldiv@b+3,c
  5711  0026A4                     l2836:
  5712  0026A4  8E31               	bsf	___fldiv@b+2,7,c
  5713  0026A6  D006               	goto	L7
  5714  0026A8                     l2840:
  5715  0026A8  0E00               	movlw	0
  5716  0026AA  6E2F               	movwf	___fldiv@b,c
  5717  0026AC  0E00               	movlw	0
  5718  0026AE  6E30               	movwf	___fldiv@b+1,c
  5719  0026B0  0E00               	movlw	0
  5720  0026B2  6E31               	movwf	___fldiv@b+2,c
  5721  0026B4                     L7:
  5722  0026B4  0E00               	movlw	0
  5723  0026B6  6E32               	movwf	___fldiv@b+3,c
  5724  0026B8  5036               	movf	___fldiv@a+3,w,c
  5725  0026BA  0B80               	andlw	128
  5726  0026BC  1A3F               	xorwf	___fldiv@sign,f,c
  5727  0026BE  5036               	movf	___fldiv@a+3,w,c
  5728  0026C0  2436               	addwf	___fldiv@a+3,w,c
  5729  0026C2  6E47               	movwf	___fldiv@aexp,c
  5730  0026C4  BE35               	btfsc	___fldiv@a+2,7,c
  5731  0026C6  8047               	bsf	___fldiv@aexp,0,c
  5732  0026C8  5047               	movf	___fldiv@aexp,w,c
  5733  0026CA  B4D8               	btfsc	status,2,c
  5734  0026CC  D00D               	goto	l2860
  5735  0026CE  2847               	incf	___fldiv@aexp,w,c
  5736  0026D0  A4D8               	btfss	status,2,c
  5737  0026D2  D008               	goto	l2856
  5738  0026D4  0E00               	movlw	0
  5739  0026D6  6E33               	movwf	___fldiv@a,c
  5740  0026D8  0E00               	movlw	0
  5741  0026DA  6E34               	movwf	___fldiv@a+1,c
  5742  0026DC  0E00               	movlw	0
  5743  0026DE  6E35               	movwf	___fldiv@a+2,c
  5744  0026E0  0E00               	movlw	0
  5745  0026E2  6E36               	movwf	___fldiv@a+3,c
  5746  0026E4                     l2856:
  5747  0026E4  8E35               	bsf	___fldiv@a+2,7,c
  5748  0026E6  D006               	goto	L8
  5749  0026E8                     l2860:
  5750  0026E8  0E00               	movlw	0
  5751  0026EA  6E33               	movwf	___fldiv@a,c
  5752  0026EC  0E00               	movlw	0
  5753  0026EE  6E34               	movwf	___fldiv@a+1,c
  5754  0026F0  0E00               	movlw	0
  5755  0026F2  6E35               	movwf	___fldiv@a+2,c
  5756  0026F4                     L8:
  5757  0026F4  0E00               	movlw	0
  5758  0026F6  6E36               	movwf	___fldiv@a+3,c
  5759  0026F8  5033               	movf	___fldiv@a,w,c
  5760  0026FA  1034               	iorwf	___fldiv@a+1,w,c
  5761  0026FC  1035               	iorwf	___fldiv@a+2,w,c
  5762  0026FE  1036               	iorwf	___fldiv@a+3,w,c
  5763  002700  A4D8               	btfss	status,2,c
  5764  002702  D017               	goto	l2874
  5765  002704  0E00               	movlw	0
  5766  002706  6E2F               	movwf	___fldiv@b,c
  5767  002708  0E00               	movlw	0
  5768  00270A  6E30               	movwf	___fldiv@b+1,c
  5769  00270C  0E00               	movlw	0
  5770  00270E  6E31               	movwf	___fldiv@b+2,c
  5771  002710  0E00               	movlw	0
  5772  002712  6E32               	movwf	___fldiv@b+3,c
  5773  002714  0E80               	movlw	128
  5774  002716  1231               	iorwf	___fldiv@b+2,f,c
  5775  002718  0E7F               	movlw	127
  5776  00271A  1232               	iorwf	___fldiv@b+3,f,c
  5777  00271C                     l2868:
  5778  00271C  503F               	movf	___fldiv@sign,w,c
  5779  00271E  1232               	iorwf	___fldiv@b+3,f,c
  5780  002720  C02F  F02F         	movff	___fldiv@b,?___fldiv
  5781  002724  C030  F030         	movff	___fldiv@b+1,?___fldiv+1
  5782  002728  C031  F031         	movff	___fldiv@b+2,?___fldiv+2
  5783  00272C  C032  F032         	movff	___fldiv@b+3,?___fldiv+3
  5784  002730  0012               	return	
  5785  002732                     l2874:
  5786  002732  5046               	movf	___fldiv@bexp,w,c
  5787  002734  A4D8               	btfss	status,2,c
  5788  002736  D009               	goto	l2882
  5789  002738  0E00               	movlw	0
  5790  00273A  6E2F               	movwf	?___fldiv,c
  5791  00273C  0E00               	movlw	0
  5792  00273E  6E30               	movwf	?___fldiv+1,c
  5793  002740  0E00               	movlw	0
  5794  002742  6E31               	movwf	?___fldiv+2,c
  5795  002744  0E00               	movlw	0
  5796  002746  6E32               	movwf	?___fldiv+3,c
  5797  002748  0012               	return	
  5798  00274A                     l2882:
  5799  00274A  5047               	movf	___fldiv@aexp,w,c
  5800  00274C  C046  F037         	movff	___fldiv@bexp,??___fldiv
  5801  002750  6A38               	clrf	(??___fldiv+1)& (0+255),c
  5802  002752  5E37               	subwf	??___fldiv,f,c
  5803  002754  0E00               	movlw	0
  5804  002756  5A38               	subwfb	??___fldiv+1,f,c
  5805  002758  0E7F               	movlw	127
  5806  00275A  2437               	addwf	??___fldiv,w,c
  5807  00275C  6E40               	movwf	___fldiv@new_exp,c
  5808  00275E  0E00               	movlw	0
  5809  002760  2038               	addwfc	??___fldiv+1,w,c
  5810  002762  6E41               	movwf	___fldiv@new_exp+1,c
  5811  002764  C02F  F03B         	movff	___fldiv@b,___fldiv@rem
  5812  002768  C030  F03C         	movff	___fldiv@b+1,___fldiv@rem+1
  5813  00276C  C031  F03D         	movff	___fldiv@b+2,___fldiv@rem+2
  5814  002770  C032  F03E         	movff	___fldiv@b+3,___fldiv@rem+3
  5815  002774  0E00               	movlw	0
  5816  002776  6E2F               	movwf	___fldiv@b,c
  5817  002778  0E00               	movlw	0
  5818  00277A  6E30               	movwf	___fldiv@b+1,c
  5819  00277C  0E00               	movlw	0
  5820  00277E  6E31               	movwf	___fldiv@b+2,c
  5821  002780  0E00               	movlw	0
  5822  002782  6E32               	movwf	___fldiv@b+3,c
  5823  002784  0E00               	movlw	0
  5824  002786  6E42               	movwf	___fldiv@grs,c
  5825  002788  0E00               	movlw	0
  5826  00278A  6E43               	movwf	___fldiv@grs+1,c
  5827  00278C  0E00               	movlw	0
  5828  00278E  6E44               	movwf	___fldiv@grs+2,c
  5829  002790  0E00               	movlw	0
  5830  002792  6E45               	movwf	___fldiv@grs+3,c
  5831  002794  0E00               	movlw	0
  5832  002796  6E47               	movwf	___fldiv@aexp,c
  5833  002798  D028               	goto	l719
  5834  00279A                     l2892:
  5835  00279A  5047               	movf	___fldiv@aexp,w,c
  5836  00279C  B4D8               	btfsc	status,2,c
  5837  00279E  D011               	goto	l2900
  5838  0027A0  90D8               	bcf	status,0,c
  5839  0027A2  363B               	rlcf	___fldiv@rem,f,c
  5840  0027A4  363C               	rlcf	___fldiv@rem+1,f,c
  5841  0027A6  363D               	rlcf	___fldiv@rem+2,f,c
  5842  0027A8  363E               	rlcf	___fldiv@rem+3,f,c
  5843  0027AA  90D8               	bcf	status,0,c
  5844  0027AC  362F               	rlcf	___fldiv@b,f,c
  5845  0027AE  3630               	rlcf	___fldiv@b+1,f,c
  5846  0027B0  3631               	rlcf	___fldiv@b+2,f,c
  5847  0027B2  3632               	rlcf	___fldiv@b+3,f,c
  5848  0027B4  BE45               	btfsc	___fldiv@grs+3,7,c
  5849  0027B6  802F               	bsf	___fldiv@b,0,c
  5850  0027B8  90D8               	bcf	status,0,c
  5851  0027BA  3642               	rlcf	___fldiv@grs,f,c
  5852  0027BC  3643               	rlcf	___fldiv@grs+1,f,c
  5853  0027BE  3644               	rlcf	___fldiv@grs+2,f,c
  5854  0027C0  3645               	rlcf	___fldiv@grs+3,f,c
  5855  0027C2                     l2900:
  5856  0027C2  5033               	movf	___fldiv@a,w,c
  5857  0027C4  5C3B               	subwf	___fldiv@rem,w,c
  5858  0027C6  5034               	movf	___fldiv@a+1,w,c
  5859  0027C8  583C               	subwfb	___fldiv@rem+1,w,c
  5860  0027CA  5035               	movf	___fldiv@a+2,w,c
  5861  0027CC  583D               	subwfb	___fldiv@rem+2,w,c
  5862  0027CE  5036               	movf	___fldiv@a+3,w,c
  5863  0027D0  583E               	subwfb	___fldiv@rem+3,w,c
  5864  0027D2  A0D8               	btfss	status,0,c
  5865  0027D4  D009               	goto	l2906
  5866  0027D6  8C45               	bsf	___fldiv@grs+3,6,c
  5867  0027D8  5033               	movf	___fldiv@a,w,c
  5868  0027DA  5E3B               	subwf	___fldiv@rem,f,c
  5869  0027DC  5034               	movf	___fldiv@a+1,w,c
  5870  0027DE  5A3C               	subwfb	___fldiv@rem+1,f,c
  5871  0027E0  5035               	movf	___fldiv@a+2,w,c
  5872  0027E2  5A3D               	subwfb	___fldiv@rem+2,f,c
  5873  0027E4  5036               	movf	___fldiv@a+3,w,c
  5874  0027E6  5A3E               	subwfb	___fldiv@rem+3,f,c
  5875  0027E8                     l2906:
  5876  0027E8  2A47               	incf	___fldiv@aexp,f,c
  5877  0027EA                     l719:
  5878  0027EA  0E19               	movlw	25
  5879  0027EC  6447               	cpfsgt	___fldiv@aexp,c
  5880  0027EE  D7D5               	goto	l2892
  5881  0027F0  503B               	movf	___fldiv@rem,w,c
  5882  0027F2  103C               	iorwf	___fldiv@rem+1,w,c
  5883  0027F4  103D               	iorwf	___fldiv@rem+2,w,c
  5884  0027F6  103E               	iorwf	___fldiv@rem+3,w,c
  5885  0027F8  B4D8               	btfsc	status,2,c
  5886  0027FA  D011               	goto	l2918
  5887  0027FC  8042               	bsf	___fldiv@grs,0,c
  5888  0027FE  D00F               	goto	l2918
  5889  002800                     l2912:
  5890  002800  90D8               	bcf	status,0,c
  5891  002802  362F               	rlcf	___fldiv@b,f,c
  5892  002804  3630               	rlcf	___fldiv@b+1,f,c
  5893  002806  3631               	rlcf	___fldiv@b+2,f,c
  5894  002808  3632               	rlcf	___fldiv@b+3,f,c
  5895  00280A  BE45               	btfsc	___fldiv@grs+3,7,c
  5896  00280C  802F               	bsf	___fldiv@b,0,c
  5897  00280E  90D8               	bcf	status,0,c
  5898  002810  3642               	rlcf	___fldiv@grs,f,c
  5899  002812  3643               	rlcf	___fldiv@grs+1,f,c
  5900  002814  3644               	rlcf	___fldiv@grs+2,f,c
  5901  002816  3645               	rlcf	___fldiv@grs+3,f,c
  5902  002818  0640               	decf	___fldiv@new_exp,f,c
  5903  00281A  A0D8               	btfss	status,0,c
  5904  00281C  0641               	decf	___fldiv@new_exp+1,f,c
  5905  00281E                     l2918:
  5906  00281E  AE31               	btfss	___fldiv@b+2,7,c
  5907  002820  D7EF               	goto	l2912
  5908  002822  0E00               	movlw	0
  5909  002824  6E47               	movwf	___fldiv@aexp,c
  5910  002826  AE45               	btfss	___fldiv@grs+3,7,c
  5911  002828  D017               	goto	l730
  5912  00282A  0EFF               	movlw	255
  5913  00282C  1442               	andwf	___fldiv@grs,w,c
  5914  00282E  6E37               	movwf	??___fldiv& (0+255),c
  5915  002830  0EFF               	movlw	255
  5916  002832  1443               	andwf	___fldiv@grs+1,w,c
  5917  002834  6E38               	movwf	(??___fldiv+1)& (0+255),c
  5918  002836  0EFF               	movlw	255
  5919  002838  1444               	andwf	___fldiv@grs+2,w,c
  5920  00283A  6E39               	movwf	(??___fldiv+2)& (0+255),c
  5921  00283C  0E7F               	movlw	127
  5922  00283E  1445               	andwf	___fldiv@grs+3,w,c
  5923  002840  6E3A               	movwf	(??___fldiv+3)& (0+255),c
  5924  002842  5037               	movf	??___fldiv,w,c
  5925  002844  1038               	iorwf	??___fldiv+1,w,c
  5926  002846  1039               	iorwf	??___fldiv+2,w,c
  5927  002848  103A               	iorwf	??___fldiv+3,w,c
  5928  00284A  B4D8               	btfsc	status,2,c
  5929  00284C  D003               	goto	l731
  5930  00284E                     u2680:
  5931  00284E  0E01               	movlw	1
  5932  002850  6E47               	movwf	___fldiv@aexp,c
  5933  002852  D002               	goto	l730
  5934  002854                     l731:
  5935  002854  B02F               	btfsc	___fldiv@b,0,c
  5936  002856  D7FB               	goto	u2680
  5937  002858                     l730:
  5938  002858  5047               	movf	___fldiv@aexp,w,c
  5939  00285A  B4D8               	btfsc	status,2,c
  5940  00285C  D01F               	goto	l2938
  5941  00285E  0E01               	movlw	1
  5942  002860  262F               	addwf	___fldiv@b,f,c
  5943  002862  0E00               	movlw	0
  5944  002864  2230               	addwfc	___fldiv@b+1,f,c
  5945  002866  2231               	addwfc	___fldiv@b+2,f,c
  5946  002868  2232               	addwfc	___fldiv@b+3,f,c
  5947  00286A  A032               	btfss	___fldiv@b+3,0,c
  5948  00286C  D017               	goto	l2938
  5949  00286E  C02F  F037         	movff	___fldiv@b,??___fldiv
  5950  002872  C030  F038         	movff	___fldiv@b+1,??___fldiv+1
  5951  002876  C031  F039         	movff	___fldiv@b+2,??___fldiv+2
  5952  00287A  C032  F03A         	movff	___fldiv@b+3,??___fldiv+3
  5953  00287E  343A               	rlcf	??___fldiv+3,w,c
  5954  002880  323A               	rrcf	??___fldiv+3,f,c
  5955  002882  3239               	rrcf	??___fldiv+2,f,c
  5956  002884  3238               	rrcf	??___fldiv+1,f,c
  5957  002886  3237               	rrcf	??___fldiv,f,c
  5958  002888  C037  F02F         	movff	??___fldiv,___fldiv@b
  5959  00288C  C038  F030         	movff	??___fldiv+1,___fldiv@b+1
  5960  002890  C039  F031         	movff	??___fldiv+2,___fldiv@b+2
  5961  002894  C03A  F032         	movff	??___fldiv+3,___fldiv@b+3
  5962  002898  4A40               	infsnz	___fldiv@new_exp,f,c
  5963  00289A  2A41               	incf	___fldiv@new_exp+1,f,c
  5964  00289C                     l2938:
  5965  00289C  BE41               	btfsc	___fldiv@new_exp+1,7,c
  5966  00289E  D010               	goto	l2942
  5967  0028A0  5041               	movf	___fldiv@new_exp+1,w,c
  5968  0028A2  E103               	bnz	u2720
  5969  0028A4  2840               	incf	___fldiv@new_exp,w,c
  5970  0028A6  A0D8               	btfss	status,0,c
  5971  0028A8  D00B               	goto	l2942
  5972  0028AA                     u2720:
  5973  0028AA  0E00               	movlw	0
  5974  0028AC  6E41               	movwf	___fldiv@new_exp+1,c
  5975  0028AE  6840               	setf	___fldiv@new_exp,c
  5976  0028B0  0E00               	movlw	0
  5977  0028B2  6E2F               	movwf	___fldiv@b,c
  5978  0028B4  0E00               	movlw	0
  5979  0028B6  6E30               	movwf	___fldiv@b+1,c
  5980  0028B8  0E00               	movlw	0
  5981  0028BA  6E31               	movwf	___fldiv@b+2,c
  5982  0028BC  0E00               	movlw	0
  5983  0028BE  6E32               	movwf	___fldiv@b+3,c
  5984  0028C0                     l2942:
  5985  0028C0  BE41               	btfsc	___fldiv@new_exp+1,7,c
  5986  0028C2  D005               	goto	u2730
  5987  0028C4  5041               	movf	___fldiv@new_exp+1,w,c
  5988  0028C6  E111               	bnz	l2946
  5989  0028C8  0440               	decf	___fldiv@new_exp,w,c
  5990  0028CA  B0D8               	btfsc	status,0,c
  5991  0028CC  D00E               	goto	l2946
  5992  0028CE                     u2730:
  5993  0028CE  0E00               	movlw	0
  5994  0028D0  6E41               	movwf	___fldiv@new_exp+1,c
  5995  0028D2  0E00               	movlw	0
  5996  0028D4  6E40               	movwf	___fldiv@new_exp,c
  5997  0028D6  0E00               	movlw	0
  5998  0028D8  6E2F               	movwf	___fldiv@b,c
  5999  0028DA  0E00               	movlw	0
  6000  0028DC  6E30               	movwf	___fldiv@b+1,c
  6001  0028DE  0E00               	movlw	0
  6002  0028E0  6E31               	movwf	___fldiv@b+2,c
  6003  0028E2  0E00               	movlw	0
  6004  0028E4  6E32               	movwf	___fldiv@b+3,c
  6005  0028E6  0E00               	movlw	0
  6006  0028E8  6E3F               	movwf	___fldiv@sign,c
  6007  0028EA                     l2946:
  6008  0028EA  C040  F046         	movff	___fldiv@new_exp,___fldiv@bexp
  6009  0028EE  A046               	btfss	___fldiv@bexp,0,c
  6010  0028F0  D002               	goto	l2952
  6011  0028F2  8E31               	bsf	___fldiv@b+2,7,c
  6012  0028F4  D001               	goto	l2954
  6013  0028F6                     l2952:
  6014  0028F6  9E31               	bcf	___fldiv@b+2,7,c
  6015  0028F8                     l2954:
  6016  0028F8  90D8               	bcf	status,0,c
  6017  0028FA  3046               	rrcf	___fldiv@bexp,w,c
  6018  0028FC  6E32               	movwf	___fldiv@b+3,c
  6019  0028FE  D70E               	goto	l2868
  6020  002900                     __end_of___fldiv:
  6021                           	opt callstack 0
  6022                           
  6023 ;; *************** function ___xxtofl *****************
  6024 ;; Defined at:
  6025 ;;		line 10 in file "C:\Program Files (x86)\Microchip\xc8\v2.05\pic\sources\c99\common\xxtofl.c"
  6026 ;; Parameters:    Size  Location     Type
  6027 ;;  sign            1    wreg     unsigned char 
  6028 ;;  val             4   16[COMRAM] long 
  6029 ;; Auto vars:     Size  Location     Type
  6030 ;;  sign            1   24[COMRAM] unsigned char 
  6031 ;;  arg             4   26[COMRAM] unsigned long 
  6032 ;;  exp             1   25[COMRAM] unsigned char 
  6033 ;; Return value:  Size  Location     Type
  6034 ;;                  4   16[COMRAM] unsigned char 
  6035 ;; Registers used:
  6036 ;;		wreg, status,2, status,0
  6037 ;; Tracked objects:
  6038 ;;		On entry : 0/0
  6039 ;;		On exit  : 0/0
  6040 ;;		Unchanged: 0/0
  6041 ;; Data sizes:     COMRAM   BANK0   BANK1   BANK2   BANK3   BANK4   BANK5
  6042 ;;      Params:         4       0       0       0       0       0       0
  6043 ;;      Locals:         6       0       0       0       0       0       0
  6044 ;;      Temps:          4       0       0       0       0       0       0
  6045 ;;      Totals:        14       0       0       0       0       0       0
  6046 ;;Total ram usage:       14 bytes
  6047 ;; Hardware stack levels used:    1
  6048 ;; This function calls:
  6049 ;;		Nothing
  6050 ;; This function is called by:
  6051 ;;		_readSensors_old
  6052 ;; This function uses a non-reentrant model
  6053 ;;
  6054                           
  6055                           	psect	text19
  6056  002900                     __ptext19:
  6057                           	opt callstack 0
  6058  002900                     ___xxtofl:
  6059                           	opt callstack 29
  6060                           
  6061                           ;incstack = 0
  6062                           ;___xxtofl@sign stored from wreg
  6063  002900  6E19               	movwf	___xxtofl@sign,c
  6064  002902  5019               	movf	___xxtofl@sign,w,c
  6065  002904  A4D8               	btfss	status,2,c
  6066  002906  AE14               	btfss	___xxtofl@val+3,7,c
  6067  002908  D01A               	goto	l790
  6068  00290A  C011  F015         	movff	___xxtofl@val,??___xxtofl
  6069  00290E  C012  F016         	movff	___xxtofl@val+1,??___xxtofl+1
  6070  002912  C013  F017         	movff	___xxtofl@val+2,??___xxtofl+2
  6071  002916  C014  F018         	movff	___xxtofl@val+3,??___xxtofl+3
  6072  00291A  1E15               	comf	??___xxtofl,f,c
  6073  00291C  1E16               	comf	??___xxtofl+1,f,c
  6074  00291E  1E17               	comf	??___xxtofl+2,f,c
  6075  002920  1E18               	comf	??___xxtofl+3,f,c
  6076  002922  2A15               	incf	??___xxtofl,f,c
  6077  002924  0E00               	movlw	0
  6078  002926  2216               	addwfc	??___xxtofl+1,f,c
  6079  002928  2217               	addwfc	??___xxtofl+2,f,c
  6080  00292A  2218               	addwfc	??___xxtofl+3,f,c
  6081  00292C  C015  F01B         	movff	??___xxtofl,___xxtofl@arg
  6082  002930  C016  F01C         	movff	??___xxtofl+1,___xxtofl@arg+1
  6083  002934  C017  F01D         	movff	??___xxtofl+2,___xxtofl@arg+2
  6084  002938  C018  F01E         	movff	??___xxtofl+3,___xxtofl@arg+3
  6085  00293C  D008               	goto	l3668
  6086  00293E                     l790:
  6087  00293E  C011  F01B         	movff	___xxtofl@val,___xxtofl@arg
  6088  002942  C012  F01C         	movff	___xxtofl@val+1,___xxtofl@arg+1
  6089  002946  C013  F01D         	movff	___xxtofl@val+2,___xxtofl@arg+2
  6090  00294A  C014  F01E         	movff	___xxtofl@val+3,___xxtofl@arg+3
  6091  00294E                     l3668:
  6092  00294E  5011               	movf	___xxtofl@val,w,c
  6093  002950  1012               	iorwf	___xxtofl@val+1,w,c
  6094  002952  1013               	iorwf	___xxtofl@val+2,w,c
  6095  002954  1014               	iorwf	___xxtofl@val+3,w,c
  6096  002956  A4D8               	btfss	status,2,c
  6097  002958  D009               	goto	l3674
  6098  00295A  0E00               	movlw	0
  6099  00295C  6E11               	movwf	?___xxtofl,c
  6100  00295E  0E00               	movlw	0
  6101  002960  6E12               	movwf	?___xxtofl+1,c
  6102  002962  0E00               	movlw	0
  6103  002964  6E13               	movwf	?___xxtofl+2,c
  6104  002966  0E00               	movlw	0
  6105  002968  6E14               	movwf	?___xxtofl+3,c
  6106  00296A  0012               	return	
  6107  00296C                     l3674:
  6108  00296C  0E96               	movlw	150
  6109  00296E  6E1A               	movwf	___xxtofl@exp,c
  6110  002970  D006               	goto	l3678
  6111  002972                     l3676:
  6112  002972  2A1A               	incf	___xxtofl@exp,f,c
  6113  002974  90D8               	bcf	status,0,c
  6114  002976  321E               	rrcf	___xxtofl@arg+3,f,c
  6115  002978  321D               	rrcf	___xxtofl@arg+2,f,c
  6116  00297A  321C               	rrcf	___xxtofl@arg+1,f,c
  6117  00297C  321B               	rrcf	___xxtofl@arg,f,c
  6118  00297E                     l3678:
  6119  00297E  0E00               	movlw	0
  6120  002980  141B               	andwf	___xxtofl@arg,w,c
  6121  002982  6E15               	movwf	??___xxtofl& (0+255),c
  6122  002984  0E00               	movlw	0
  6123  002986  141C               	andwf	___xxtofl@arg+1,w,c
  6124  002988  6E16               	movwf	(??___xxtofl+1)& (0+255),c
  6125  00298A  0E00               	movlw	0
  6126  00298C  141D               	andwf	___xxtofl@arg+2,w,c
  6127  00298E  6E17               	movwf	(??___xxtofl+2)& (0+255),c
  6128  002990  0EFE               	movlw	254
  6129  002992  141E               	andwf	___xxtofl@arg+3,w,c
  6130  002994  6E18               	movwf	(??___xxtofl+3)& (0+255),c
  6131  002996  5015               	movf	??___xxtofl,w,c
  6132  002998  1016               	iorwf	??___xxtofl+1,w,c
  6133  00299A  1017               	iorwf	??___xxtofl+2,w,c
  6134  00299C  1018               	iorwf	??___xxtofl+3,w,c
  6135  00299E  B4D8               	btfsc	status,2,c
  6136  0029A0  D00D               	goto	l797
  6137  0029A2  D7E7               	goto	l3676
  6138  0029A4                     l3680:
  6139  0029A4  2A1A               	incf	___xxtofl@exp,f,c
  6140  0029A6  0E01               	movlw	1
  6141  0029A8  261B               	addwf	___xxtofl@arg,f,c
  6142  0029AA  0E00               	movlw	0
  6143  0029AC  221C               	addwfc	___xxtofl@arg+1,f,c
  6144  0029AE  221D               	addwfc	___xxtofl@arg+2,f,c
  6145  0029B0  221E               	addwfc	___xxtofl@arg+3,f,c
  6146  0029B2  90D8               	bcf	status,0,c
  6147  0029B4  321E               	rrcf	___xxtofl@arg+3,f,c
  6148  0029B6  321D               	rrcf	___xxtofl@arg+2,f,c
  6149  0029B8  321C               	rrcf	___xxtofl@arg+1,f,c
  6150  0029BA  321B               	rrcf	___xxtofl@arg,f,c
  6151  0029BC                     l797:
  6152  0029BC  0E00               	movlw	0
  6153  0029BE  141B               	andwf	___xxtofl@arg,w,c
  6154  0029C0  6E15               	movwf	??___xxtofl& (0+255),c
  6155  0029C2  0E00               	movlw	0
  6156  0029C4  141C               	andwf	___xxtofl@arg+1,w,c
  6157  0029C6  6E16               	movwf	(??___xxtofl+1)& (0+255),c
  6158  0029C8  0E00               	movlw	0
  6159  0029CA  141D               	andwf	___xxtofl@arg+2,w,c
  6160  0029CC  6E17               	movwf	(??___xxtofl+2)& (0+255),c
  6161  0029CE  0EFF               	movlw	255
  6162  0029D0  141E               	andwf	___xxtofl@arg+3,w,c
  6163  0029D2  6E18               	movwf	(??___xxtofl+3)& (0+255),c
  6164  0029D4  5015               	movf	??___xxtofl,w,c
  6165  0029D6  1016               	iorwf	??___xxtofl+1,w,c
  6166  0029D8  1017               	iorwf	??___xxtofl+2,w,c
  6167  0029DA  1018               	iorwf	??___xxtofl+3,w,c
  6168  0029DC  B4D8               	btfsc	status,2,c
  6169  0029DE  D007               	goto	l3688
  6170  0029E0  D7E1               	goto	l3680
  6171  0029E2                     l3686:
  6172  0029E2  061A               	decf	___xxtofl@exp,f,c
  6173  0029E4  90D8               	bcf	status,0,c
  6174  0029E6  361B               	rlcf	___xxtofl@arg,f,c
  6175  0029E8  361C               	rlcf	___xxtofl@arg+1,f,c
  6176  0029EA  361D               	rlcf	___xxtofl@arg+2,f,c
  6177  0029EC  361E               	rlcf	___xxtofl@arg+3,f,c
  6178  0029EE                     l3688:
  6179  0029EE  BE1D               	btfsc	___xxtofl@arg+2,7,c
  6180  0029F0  D003               	goto	u3730
  6181  0029F2  0E02               	movlw	2
  6182  0029F4  601A               	cpfslt	___xxtofl@exp,c
  6183  0029F6  D7F5               	goto	l3686
  6184  0029F8                     u3730:
  6185  0029F8  A01A               	btfss	___xxtofl@exp,0,c
  6186  0029FA  9E1D               	bcf	___xxtofl@arg+2,7,c
  6187  0029FC  90D8               	bcf	status,0,c
  6188  0029FE  321A               	rrcf	___xxtofl@exp,f,c
  6189  002A00  C01A  F015         	movff	___xxtofl@exp,??___xxtofl
  6190  002A04  6A16               	clrf	(??___xxtofl+1)& (0+255),c
  6191  002A06  6A17               	clrf	(??___xxtofl+2)& (0+255),c
  6192  002A08  6A18               	clrf	(??___xxtofl+3)& (0+255),c
  6193  002A0A  C015  F018         	movff	??___xxtofl,??___xxtofl+3
  6194  002A0E  6A17               	clrf	??___xxtofl+2,c
  6195  002A10  6A16               	clrf	??___xxtofl+1,c
  6196  002A12  6A15               	clrf	??___xxtofl,c
  6197  002A14  5015               	movf	??___xxtofl,w,c
  6198  002A16  121B               	iorwf	___xxtofl@arg,f,c
  6199  002A18  5016               	movf	??___xxtofl+1,w,c
  6200  002A1A  121C               	iorwf	___xxtofl@arg+1,f,c
  6201  002A1C  5017               	movf	??___xxtofl+2,w,c
  6202  002A1E  121D               	iorwf	___xxtofl@arg+2,f,c
  6203  002A20  5018               	movf	??___xxtofl+3,w,c
  6204  002A22  121E               	iorwf	___xxtofl@arg+3,f,c
  6205  002A24  5019               	movf	___xxtofl@sign,w,c
  6206  002A26  A4D8               	btfss	status,2,c
  6207  002A28  AE14               	btfss	___xxtofl@val+3,7,c
  6208  002A2A  D001               	goto	l3704
  6209  002A2C  8E1E               	bsf	___xxtofl@arg+3,7,c
  6210  002A2E                     l3704:
  6211  002A2E  C01B  F011         	movff	___xxtofl@arg,?___xxtofl
  6212  002A32  C01C  F012         	movff	___xxtofl@arg+1,?___xxtofl+1
  6213  002A36  C01D  F013         	movff	___xxtofl@arg+2,?___xxtofl+2
  6214  002A3A  C01E  F014         	movff	___xxtofl@arg+3,?___xxtofl+3
  6215  002A3E  0012               	return		;funcret
  6216  002A40                     __end_of___xxtofl:
  6217                           	opt callstack 0
  6218                           
  6219 ;; *************** function ___fltol *****************
  6220 ;; Defined at:
  6221 ;;		line 43 in file "C:\Program Files (x86)\Microchip\xc8\v2.05\pic\sources\c99\common\fltol.c"
  6222 ;; Parameters:    Size  Location     Type
  6223 ;;  f1              4    0[COMRAM] unsigned char 
  6224 ;; Auto vars:     Size  Location     Type
  6225 ;;  exp1            1    9[COMRAM] unsigned char 
  6226 ;;  sign1           1    8[COMRAM] unsigned char 
  6227 ;; Return value:  Size  Location     Type
  6228 ;;                  4    0[COMRAM] long 
  6229 ;; Registers used:
  6230 ;;		wreg, status,2, status,0
  6231 ;; Tracked objects:
  6232 ;;		On entry : 0/0
  6233 ;;		On exit  : 0/0
  6234 ;;		Unchanged: 0/0
  6235 ;; Data sizes:     COMRAM   BANK0   BANK1   BANK2   BANK3   BANK4   BANK5
  6236 ;;      Params:         4       0       0       0       0       0       0
  6237 ;;      Locals:         2       0       0       0       0       0       0
  6238 ;;      Temps:          4       0       0       0       0       0       0
  6239 ;;      Totals:        10       0       0       0       0       0       0
  6240 ;;Total ram usage:       10 bytes
  6241 ;; Hardware stack levels used:    1
  6242 ;; This function calls:
  6243 ;;		Nothing
  6244 ;; This function is called by:
  6245 ;;		_readSensors_old
  6246 ;; This function uses a non-reentrant model
  6247 ;;
  6248                           
  6249                           	psect	text20
  6250  002E7C                     __ptext20:
  6251                           	opt callstack 0
  6252  002E7C                     ___fltol:
  6253                           	opt callstack 29
  6254                           
  6255                           ;incstack = 0
  6256  002E7C  3403               	rlcf	___fltol@f1+2,w,c
  6257  002E7E  3404               	rlcf	___fltol@f1+3,w,c
  6258  002E80  6E0A               	movwf	___fltol@exp1,c
  6259  002E82  500A               	movf	___fltol@exp1,w,c
  6260  002E84  A4D8               	btfss	status,2,c
  6261  002E86  D009               	goto	l3624
  6262  002E88                     u3600:
  6263  002E88  0E00               	movlw	0
  6264  002E8A  6E01               	movwf	?___fltol,c
  6265  002E8C  0E00               	movlw	0
  6266  002E8E  6E02               	movwf	?___fltol+1,c
  6267  002E90  0E00               	movlw	0
  6268  002E92  6E03               	movwf	?___fltol+2,c
  6269  002E94  0E00               	movlw	0
  6270  002E96  6E04               	movwf	?___fltol+3,c
  6271  002E98  0012               	return	
  6272  002E9A                     l3624:
  6273  002E9A  C001  F005         	movff	___fltol@f1,??___fltol
  6274  002E9E  C002  F006         	movff	___fltol@f1+1,??___fltol+1
  6275  002EA2  C003  F007         	movff	___fltol@f1+2,??___fltol+2
  6276  002EA6  C004  F008         	movff	___fltol@f1+3,??___fltol+3
  6277  002EAA  0E20               	movlw	32
  6278  002EAC  D005               	goto	u3610
  6279  002EAE                     u3615:
  6280  002EAE  90D8               	bcf	status,0,c
  6281  002EB0  3208               	rrcf	??___fltol+3,f,c
  6282  002EB2  3207               	rrcf	??___fltol+2,f,c
  6283  002EB4  3206               	rrcf	??___fltol+1,f,c
  6284  002EB6  3205               	rrcf	??___fltol,f,c
  6285  002EB8                     u3610:
  6286  002EB8  2EE8               	decfsz	wreg,f,c
  6287  002EBA  D7F9               	goto	u3615
  6288  002EBC  5005               	movf	??___fltol,w,c
  6289  002EBE  6E09               	movwf	___fltol@sign1,c
  6290  002EC0  8E03               	bsf	___fltol@f1+2,7,c
  6291  002EC2  0EFF               	movlw	255
  6292  002EC4  1601               	andwf	___fltol@f1,f,c
  6293  002EC6  0EFF               	movlw	255
  6294  002EC8  1602               	andwf	___fltol@f1+1,f,c
  6295  002ECA  0EFF               	movlw	255
  6296  002ECC  1603               	andwf	___fltol@f1+2,f,c
  6297  002ECE  0E00               	movlw	0
  6298  002ED0  1604               	andwf	___fltol@f1+3,f,c
  6299  002ED2  0E96               	movlw	150
  6300  002ED4  5E0A               	subwf	___fltol@exp1,f,c
  6301  002ED6  AE0A               	btfss	___fltol@exp1,7,c
  6302  002ED8  D00D               	goto	l3644
  6303  002EDA  500A               	movf	___fltol@exp1,w,c
  6304  002EDC  0A80               	xorlw	128
  6305  002EDE  0F97               	addlw	151
  6306  002EE0  A0D8               	btfss	status,0,c
  6307  002EE2  D7D2               	goto	u3600
  6308  002EE4                     l3640:
  6309  002EE4  90D8               	bcf	status,0,c
  6310  002EE6  3204               	rrcf	___fltol@f1+3,f,c
  6311  002EE8  3203               	rrcf	___fltol@f1+2,f,c
  6312  002EEA  3202               	rrcf	___fltol@f1+1,f,c
  6313  002EEC  3201               	rrcf	___fltol@f1,f,c
  6314  002EEE  3E0A               	incfsz	___fltol@exp1,f,c
  6315  002EF0  D7F9               	goto	l3640
  6316  002EF2  D00D               	goto	u3650
  6317  002EF4                     l3644:
  6318  002EF4  0E1F               	movlw	31
  6319  002EF6  640A               	cpfsgt	___fltol@exp1,c
  6320  002EF8  D007               	goto	l3652
  6321  002EFA  D7C6               	goto	u3600
  6322  002EFC                     l3650:
  6323  002EFC  90D8               	bcf	status,0,c
  6324  002EFE  3601               	rlcf	___fltol@f1,f,c
  6325  002F00  3602               	rlcf	___fltol@f1+1,f,c
  6326  002F02  3603               	rlcf	___fltol@f1+2,f,c
  6327  002F04  3604               	rlcf	___fltol@f1+3,f,c
  6328  002F06  060A               	decf	___fltol@exp1,f,c
  6329  002F08                     l3652:
  6330  002F08  500A               	movf	___fltol@exp1,w,c
  6331  002F0A  A4D8               	btfss	status,2,c
  6332  002F0C  D7F7               	goto	l3650
  6333  002F0E                     u3650:
  6334  002F0E  5009               	movf	___fltol@sign1,w,c
  6335  002F10  B4D8               	btfsc	status,2,c
  6336  002F12  D008               	goto	l3658
  6337  002F14  1E04               	comf	___fltol@f1+3,f,c
  6338  002F16  1E03               	comf	___fltol@f1+2,f,c
  6339  002F18  1E02               	comf	___fltol@f1+1,f,c
  6340  002F1A  6C01               	negf	___fltol@f1,c
  6341  002F1C  0E00               	movlw	0
  6342  002F1E  2202               	addwfc	___fltol@f1+1,f,c
  6343  002F20  2203               	addwfc	___fltol@f1+2,f,c
  6344  002F22  2204               	addwfc	___fltol@f1+3,f,c
  6345  002F24                     l3658:
  6346  002F24  C001  F001         	movff	___fltol@f1,?___fltol
  6347  002F28  C002  F002         	movff	___fltol@f1+1,?___fltol+1
  6348  002F2C  C003  F003         	movff	___fltol@f1+2,?___fltol+2
  6349  002F30  C004  F004         	movff	___fltol@f1+3,?___fltol+3
  6350  002F34  0012               	return		;funcret
  6351  002F36                     __end_of___fltol:
  6352                           	opt callstack 0
  6353                           
  6354 ;; *************** function ___awmod *****************
  6355 ;; Defined at:
  6356 ;;		line 7 in file "C:\Program Files (x86)\Microchip\xc8\v2.05\pic\sources\c99\common\awmod.c"
  6357 ;; Parameters:    Size  Location     Type
  6358 ;;  dividend        2   10[COMRAM] int 
  6359 ;;  divisor         2   12[COMRAM] int 
  6360 ;; Auto vars:     Size  Location     Type
  6361 ;;  sign            1   15[COMRAM] unsigned char 
  6362 ;;  counter         1   14[COMRAM] unsigned char 
  6363 ;; Return value:  Size  Location     Type
  6364 ;;                  2   10[COMRAM] int 
  6365 ;; Registers used:
  6366 ;;		wreg, status,2, status,0
  6367 ;; Tracked objects:
  6368 ;;		On entry : 0/0
  6369 ;;		On exit  : 0/0
  6370 ;;		Unchanged: 0/0
  6371 ;; Data sizes:     COMRAM   BANK0   BANK1   BANK2   BANK3   BANK4   BANK5
  6372 ;;      Params:         4       0       0       0       0       0       0
  6373 ;;      Locals:         2       0       0       0       0       0       0
  6374 ;;      Temps:          0       0       0       0       0       0       0
  6375 ;;      Totals:         6       0       0       0       0       0       0
  6376 ;;Total ram usage:        6 bytes
  6377 ;; Hardware stack levels used:    1
  6378 ;; This function calls:
  6379 ;;		Nothing
  6380 ;; This function is called by:
  6381 ;;		_readSensors_old
  6382 ;; This function uses a non-reentrant model
  6383 ;;
  6384                           
  6385                           	psect	text21
  6386  002F36                     __ptext21:
  6387                           	opt callstack 0
  6388  002F36                     ___awmod:
  6389                           	opt callstack 29
  6390                           
  6391                           ;incstack = 0
  6392  002F36  0E00               	movlw	0
  6393  002F38  6E10               	movwf	___awmod@sign,c
  6394  002F3A  AE0C               	btfss	___awmod@dividend+1,7,c
  6395  002F3C  D006               	goto	l3590
  6396  002F3E  6C0B               	negf	___awmod@dividend,c
  6397  002F40  1E0C               	comf	___awmod@dividend+1,f,c
  6398  002F42  B0D8               	btfsc	status,0,c
  6399  002F44  2A0C               	incf	___awmod@dividend+1,f,c
  6400  002F46  0E01               	movlw	1
  6401  002F48  6E10               	movwf	___awmod@sign,c
  6402  002F4A                     l3590:
  6403  002F4A  AE0E               	btfss	___awmod@divisor+1,7,c
  6404  002F4C  D004               	goto	l3594
  6405  002F4E  6C0D               	negf	___awmod@divisor,c
  6406  002F50  1E0E               	comf	___awmod@divisor+1,f,c
  6407  002F52  B0D8               	btfsc	status,0,c
  6408  002F54  2A0E               	incf	___awmod@divisor+1,f,c
  6409  002F56                     l3594:
  6410  002F56  500D               	movf	___awmod@divisor,w,c
  6411  002F58  100E               	iorwf	___awmod@divisor+1,w,c
  6412  002F5A  B4D8               	btfsc	status,2,c
  6413  002F5C  D018               	goto	l3610
  6414  002F5E  0E01               	movlw	1
  6415  002F60  6E0F               	movwf	___awmod@counter,c
  6416  002F62  D004               	goto	l3600
  6417  002F64                     l3598:
  6418  002F64  90D8               	bcf	status,0,c
  6419  002F66  360D               	rlcf	___awmod@divisor,f,c
  6420  002F68  360E               	rlcf	___awmod@divisor+1,f,c
  6421  002F6A  2A0F               	incf	___awmod@counter,f,c
  6422  002F6C                     l3600:
  6423  002F6C  AE0E               	btfss	___awmod@divisor+1,7,c
  6424  002F6E  D7FA               	goto	l3598
  6425  002F70                     u3570:
  6426  002F70  500D               	movf	___awmod@divisor,w,c
  6427  002F72  5C0B               	subwf	___awmod@dividend,w,c
  6428  002F74  500E               	movf	___awmod@divisor+1,w,c
  6429  002F76  580C               	subwfb	___awmod@dividend+1,w,c
  6430  002F78  A0D8               	btfss	status,0,c
  6431  002F7A  D004               	goto	l3606
  6432  002F7C  500D               	movf	___awmod@divisor,w,c
  6433  002F7E  5E0B               	subwf	___awmod@dividend,f,c
  6434  002F80  500E               	movf	___awmod@divisor+1,w,c
  6435  002F82  5A0C               	subwfb	___awmod@dividend+1,f,c
  6436  002F84                     l3606:
  6437  002F84  90D8               	bcf	status,0,c
  6438  002F86  320E               	rrcf	___awmod@divisor+1,f,c
  6439  002F88  320D               	rrcf	___awmod@divisor,f,c
  6440  002F8A  2E0F               	decfsz	___awmod@counter,f,c
  6441  002F8C  D7F1               	goto	u3570
  6442  002F8E                     l3610:
  6443  002F8E  5010               	movf	___awmod@sign,w,c
  6444  002F90  B4D8               	btfsc	status,2,c
  6445  002F92  D004               	goto	l3614
  6446  002F94  6C0B               	negf	___awmod@dividend,c
  6447  002F96  1E0C               	comf	___awmod@dividend+1,f,c
  6448  002F98  B0D8               	btfsc	status,0,c
  6449  002F9A  2A0C               	incf	___awmod@dividend+1,f,c
  6450  002F9C                     l3614:
  6451  002F9C  C00B  F00B         	movff	___awmod@dividend,?___awmod
  6452  002FA0  C00C  F00C         	movff	___awmod@dividend+1,?___awmod+1
  6453  002FA4  0012               	return		;funcret
  6454  002FA6                     __end_of___awmod:
  6455                           	opt callstack 0
  6456                           
  6457 ;; *************** function _UART_Init *****************
  6458 ;; Defined at:
  6459 ;;		line 19 in file "../../Desktop/usart_custom.c"
  6460 ;; Parameters:    Size  Location     Type
  6461 ;;  baudrate        4   14[COMRAM] const long 
  6462 ;; Auto vars:     Size  Location     Type
  6463 ;;  x               2   26[COMRAM] unsigned int 
  6464 ;; Return value:  Size  Location     Type
  6465 ;;                  1    wreg      unsigned char 
  6466 ;; Registers used:
  6467 ;;		wreg, status,2, status,0, cstack
  6468 ;; Tracked objects:
  6469 ;;		On entry : 0/0
  6470 ;;		On exit  : 0/0
  6471 ;;		Unchanged: 0/0
  6472 ;; Data sizes:     COMRAM   BANK0   BANK1   BANK2   BANK3   BANK4   BANK5
  6473 ;;      Params:         4       0       0       0       0       0       0
  6474 ;;      Locals:         2       0       0       0       0       0       0
  6475 ;;      Temps:          8       0       0       0       0       0       0
  6476 ;;      Totals:        14       0       0       0       0       0       0
  6477 ;;Total ram usage:       14 bytes
  6478 ;; Hardware stack levels used:    1
  6479 ;; Hardware stack levels required when called:    1
  6480 ;; This function calls:
  6481 ;;		___aldiv
  6482 ;; This function is called by:
  6483 ;;		_main
  6484 ;; This function uses a non-reentrant model
  6485 ;;
  6486                           
  6487                           	psect	text22
  6488  002A40                     __ptext22:
  6489                           	opt callstack 0
  6490  002A40                     _UART_Init:
  6491                           	opt callstack 29
  6492                           
  6493                           ;../../Desktop/usart_custom.c: 19: char UART_Init(const long int baudrate);../../Desktop
      +                          /usart_custom.c: 20: {;../../Desktop/usart_custom.c: 21:   unsigned int x;;../../Desktop
      +                          /usart_custom.c: 22:   x = (10000000 - baudrate*64)/(baudrate*64);
  6494                           
  6495                           ;incstack = 0
  6496  002A40  C00F  F013         	movff	UART_Init@baudrate,??_UART_Init
  6497  002A44  C010  F014         	movff	UART_Init@baudrate+1,??_UART_Init+1
  6498  002A48  C011  F015         	movff	UART_Init@baudrate+2,??_UART_Init+2
  6499  002A4C  C012  F016         	movff	UART_Init@baudrate+3,??_UART_Init+3
  6500  002A50  0E06               	movlw	6
  6501  002A52                     u3775:
  6502  002A52  90D8               	bcf	status,0,c
  6503  002A54  3613               	rlcf	??_UART_Init,f,c
  6504  002A56  3614               	rlcf	??_UART_Init+1,f,c
  6505  002A58  3615               	rlcf	??_UART_Init+2,f,c
  6506  002A5A  3616               	rlcf	??_UART_Init+3,f,c
  6507  002A5C  2EE8               	decfsz	wreg,f,c
  6508  002A5E  D7F9               	goto	u3775
  6509  002A60  5013               	movf	??_UART_Init,w,c
  6510  002A62  0880               	sublw	128
  6511  002A64  6E01               	movwf	___aldiv@dividend,c
  6512  002A66  0E96               	movlw	150
  6513  002A68  5414               	subfwb	??_UART_Init+1,w,c
  6514  002A6A  6E02               	movwf	___aldiv@dividend+1,c
  6515  002A6C  0E98               	movlw	152
  6516  002A6E  5415               	subfwb	??_UART_Init+2,w,c
  6517  002A70  6E03               	movwf	___aldiv@dividend+2,c
  6518  002A72  0E00               	movlw	0
  6519  002A74  5416               	subfwb	??_UART_Init+3,w,c
  6520  002A76  6E04               	movwf	___aldiv@dividend+3,c
  6521  002A78  C00F  F017         	movff	UART_Init@baudrate,??_UART_Init+4
  6522  002A7C  C010  F018         	movff	UART_Init@baudrate+1,??_UART_Init+5
  6523  002A80  C011  F019         	movff	UART_Init@baudrate+2,??_UART_Init+6
  6524  002A84  C012  F01A         	movff	UART_Init@baudrate+3,??_UART_Init+7
  6525  002A88  0E06               	movlw	6
  6526  002A8A                     u3785:
  6527  002A8A  90D8               	bcf	status,0,c
  6528  002A8C  3617               	rlcf	??_UART_Init+4,f,c
  6529  002A8E  3618               	rlcf	??_UART_Init+5,f,c
  6530  002A90  3619               	rlcf	??_UART_Init+6,f,c
  6531  002A92  361A               	rlcf	??_UART_Init+7,f,c
  6532  002A94  2EE8               	decfsz	wreg,f,c
  6533  002A96  D7F9               	goto	u3785
  6534  002A98  C017  F005         	movff	??_UART_Init+4,___aldiv@divisor
  6535  002A9C  C018  F006         	movff	??_UART_Init+5,___aldiv@divisor+1
  6536  002AA0  C019  F007         	movff	??_UART_Init+6,___aldiv@divisor+2
  6537  002AA4  C01A  F008         	movff	??_UART_Init+7,___aldiv@divisor+3
  6538  002AA8  ECD8  F016         	call	___aldiv	;wreg free
  6539  002AAC  C001  F01B         	movff	?___aldiv,UART_Init@x
  6540  002AB0  C002  F01C         	movff	?___aldiv+1,UART_Init@x+1
  6541                           
  6542                           ;../../Desktop/usart_custom.c: 23:   if(x>255)
  6543  002AB4  041C               	decf	UART_Init@x+1,w,c
  6544  002AB6  A0D8               	btfss	status,0,c
  6545  002AB8  D03B               	goto	l3716
  6546                           
  6547                           ;../../Desktop/usart_custom.c: 24:   {;../../Desktop/usart_custom.c: 25:     x = (100000
      +                          00 - baudrate*16)/(baudrate*16);
  6548  002ABA  C00F  F013         	movff	UART_Init@baudrate,??_UART_Init
  6549  002ABE  C010  F014         	movff	UART_Init@baudrate+1,??_UART_Init+1
  6550  002AC2  C011  F015         	movff	UART_Init@baudrate+2,??_UART_Init+2
  6551  002AC6  C012  F016         	movff	UART_Init@baudrate+3,??_UART_Init+3
  6552  002ACA  0E04               	movlw	4
  6553  002ACC                     u3805:
  6554  002ACC  90D8               	bcf	status,0,c
  6555  002ACE  3613               	rlcf	??_UART_Init,f,c
  6556  002AD0  3614               	rlcf	??_UART_Init+1,f,c
  6557  002AD2  3615               	rlcf	??_UART_Init+2,f,c
  6558  002AD4  3616               	rlcf	??_UART_Init+3,f,c
  6559  002AD6  2EE8               	decfsz	wreg,f,c
  6560  002AD8  D7F9               	goto	u3805
  6561  002ADA  5013               	movf	??_UART_Init,w,c
  6562  002ADC  0880               	sublw	128
  6563  002ADE  6E01               	movwf	___aldiv@dividend,c
  6564  002AE0  0E96               	movlw	150
  6565  002AE2  5414               	subfwb	??_UART_Init+1,w,c
  6566  002AE4  6E02               	movwf	___aldiv@dividend+1,c
  6567  002AE6  0E98               	movlw	152
  6568  002AE8  5415               	subfwb	??_UART_Init+2,w,c
  6569  002AEA  6E03               	movwf	___aldiv@dividend+2,c
  6570  002AEC  0E00               	movlw	0
  6571  002AEE  5416               	subfwb	??_UART_Init+3,w,c
  6572  002AF0  6E04               	movwf	___aldiv@dividend+3,c
  6573  002AF2  C00F  F017         	movff	UART_Init@baudrate,??_UART_Init+4
  6574  002AF6  C010  F018         	movff	UART_Init@baudrate+1,??_UART_Init+5
  6575  002AFA  C011  F019         	movff	UART_Init@baudrate+2,??_UART_Init+6
  6576  002AFE  C012  F01A         	movff	UART_Init@baudrate+3,??_UART_Init+7
  6577  002B02  0E04               	movlw	4
  6578  002B04                     u3815:
  6579  002B04  90D8               	bcf	status,0,c
  6580  002B06  3617               	rlcf	??_UART_Init+4,f,c
  6581  002B08  3618               	rlcf	??_UART_Init+5,f,c
  6582  002B0A  3619               	rlcf	??_UART_Init+6,f,c
  6583  002B0C  361A               	rlcf	??_UART_Init+7,f,c
  6584  002B0E  2EE8               	decfsz	wreg,f,c
  6585  002B10  D7F9               	goto	u3815
  6586  002B12  C017  F005         	movff	??_UART_Init+4,___aldiv@divisor
  6587  002B16  C018  F006         	movff	??_UART_Init+5,___aldiv@divisor+1
  6588  002B1A  C019  F007         	movff	??_UART_Init+6,___aldiv@divisor+2
  6589  002B1E  C01A  F008         	movff	??_UART_Init+7,___aldiv@divisor+3
  6590  002B22  ECD8  F016         	call	___aldiv	;wreg free
  6591  002B26  C001  F01B         	movff	?___aldiv,UART_Init@x
  6592  002B2A  C002  F01C         	movff	?___aldiv+1,UART_Init@x+1
  6593                           
  6594                           ;../../Desktop/usart_custom.c: 26:     BRGH = 1;
  6595  002B2E  84AC               	bsf	4012,2,c	;volatile
  6596  002B30                     l3716:
  6597                           
  6598                           ;../../Desktop/usart_custom.c: 28:   if(x<256)
  6599  002B30  041C               	decf	UART_Init@x+1,w,c
  6600  002B32  B0D8               	btfsc	status,0,c
  6601  002B34  0012               	return	
  6602                           
  6603                           ;../../Desktop/usart_custom.c: 29:   {;../../Desktop/usart_custom.c: 30:     SPBRG = x;
  6604  002B36  C01B  FFAF         	movff	UART_Init@x,4015	;volatile
  6605                           
  6606                           ;../../Desktop/usart_custom.c: 31:     SYNC = 0;
  6607  002B3A  98AC               	bcf	4012,4,c	;volatile
  6608                           
  6609                           ;../../Desktop/usart_custom.c: 32:     SPEN = 1;
  6610  002B3C  8EAB               	bsf	4011,7,c	;volatile
  6611                           
  6612                           ;../../Desktop/usart_custom.c: 35:     CREN = 1;
  6613  002B3E  88AB               	bsf	4011,4,c	;volatile
  6614                           
  6615                           ;../../Desktop/usart_custom.c: 36:     TXEN = 1;
  6616  002B40  8AAC               	bsf	4012,5,c	;volatile
  6617                           
  6618                           ;../../Desktop/usart_custom.c: 37:     return 1;;	Return value of _UART_Init is never us
      +                          ed
  6619  002B42  0012               	return		;funcret
  6620  002B44                     __end_of_UART_Init:
  6621                           	opt callstack 0
  6622                           
  6623 ;; *************** function ___aldiv *****************
  6624 ;; Defined at:
  6625 ;;		line 7 in file "C:\Program Files (x86)\Microchip\xc8\v2.05\pic\sources\c99\common\aldiv.c"
  6626 ;; Parameters:    Size  Location     Type
  6627 ;;  dividend        4    0[COMRAM] long 
  6628 ;;  divisor         4    4[COMRAM] long 
  6629 ;; Auto vars:     Size  Location     Type
  6630 ;;  quotient        4   10[COMRAM] long 
  6631 ;;  sign            1    9[COMRAM] unsigned char 
  6632 ;;  counter         1    8[COMRAM] unsigned char 
  6633 ;; Return value:  Size  Location     Type
  6634 ;;                  4    0[COMRAM] long 
  6635 ;; Registers used:
  6636 ;;		wreg, status,2, status,0
  6637 ;; Tracked objects:
  6638 ;;		On entry : 0/0
  6639 ;;		On exit  : 0/0
  6640 ;;		Unchanged: 0/0
  6641 ;; Data sizes:     COMRAM   BANK0   BANK1   BANK2   BANK3   BANK4   BANK5
  6642 ;;      Params:         8       0       0       0       0       0       0
  6643 ;;      Locals:         6       0       0       0       0       0       0
  6644 ;;      Temps:          0       0       0       0       0       0       0
  6645 ;;      Totals:        14       0       0       0       0       0       0
  6646 ;;Total ram usage:       14 bytes
  6647 ;; Hardware stack levels used:    1
  6648 ;; This function calls:
  6649 ;;		Nothing
  6650 ;; This function is called by:
  6651 ;;		_UART_Init
  6652 ;; This function uses a non-reentrant model
  6653 ;;
  6654                           
  6655                           	psect	text23
  6656  002DB0                     __ptext23:
  6657                           	opt callstack 0
  6658  002DB0                     ___aldiv:
  6659                           	opt callstack 29
  6660                           
  6661                           ;incstack = 0
  6662  002DB0  0E00               	movlw	0
  6663  002DB2  6E0A               	movwf	___aldiv@sign,c
  6664  002DB4  AE08               	btfss	___aldiv@divisor+3,7,c
  6665  002DB6  D00A               	goto	l3546
  6666  002DB8  1E08               	comf	___aldiv@divisor+3,f,c
  6667  002DBA  1E07               	comf	___aldiv@divisor+2,f,c
  6668  002DBC  1E06               	comf	___aldiv@divisor+1,f,c
  6669  002DBE  6C05               	negf	___aldiv@divisor,c
  6670  002DC0  0E00               	movlw	0
  6671  002DC2  2206               	addwfc	___aldiv@divisor+1,f,c
  6672  002DC4  2207               	addwfc	___aldiv@divisor+2,f,c
  6673  002DC6  2208               	addwfc	___aldiv@divisor+3,f,c
  6674  002DC8  0E01               	movlw	1
  6675  002DCA  6E0A               	movwf	___aldiv@sign,c
  6676  002DCC                     l3546:
  6677  002DCC  AE04               	btfss	___aldiv@dividend+3,7,c
  6678  002DCE  D00A               	goto	l3552
  6679  002DD0  1E04               	comf	___aldiv@dividend+3,f,c
  6680  002DD2  1E03               	comf	___aldiv@dividend+2,f,c
  6681  002DD4  1E02               	comf	___aldiv@dividend+1,f,c
  6682  002DD6  6C01               	negf	___aldiv@dividend,c
  6683  002DD8  0E00               	movlw	0
  6684  002DDA  2202               	addwfc	___aldiv@dividend+1,f,c
  6685  002DDC  2203               	addwfc	___aldiv@dividend+2,f,c
  6686  002DDE  2204               	addwfc	___aldiv@dividend+3,f,c
  6687  002DE0  0E01               	movlw	1
  6688  002DE2  1A0A               	xorwf	___aldiv@sign,f,c
  6689  002DE4                     l3552:
  6690  002DE4  0E00               	movlw	0
  6691  002DE6  6E0B               	movwf	___aldiv@quotient,c
  6692  002DE8  0E00               	movlw	0
  6693  002DEA  6E0C               	movwf	___aldiv@quotient+1,c
  6694  002DEC  0E00               	movlw	0
  6695  002DEE  6E0D               	movwf	___aldiv@quotient+2,c
  6696  002DF0  0E00               	movlw	0
  6697  002DF2  6E0E               	movwf	___aldiv@quotient+3,c
  6698  002DF4  5005               	movf	___aldiv@divisor,w,c
  6699  002DF6  1006               	iorwf	___aldiv@divisor+1,w,c
  6700  002DF8  1007               	iorwf	___aldiv@divisor+2,w,c
  6701  002DFA  1008               	iorwf	___aldiv@divisor+3,w,c
  6702  002DFC  B4D8               	btfsc	status,2,c
  6703  002DFE  D02A               	goto	l3574
  6704  002E00  0E01               	movlw	1
  6705  002E02  6E09               	movwf	___aldiv@counter,c
  6706  002E04  D006               	goto	l3560
  6707  002E06                     l3558:
  6708  002E06  90D8               	bcf	status,0,c
  6709  002E08  3605               	rlcf	___aldiv@divisor,f,c
  6710  002E0A  3606               	rlcf	___aldiv@divisor+1,f,c
  6711  002E0C  3607               	rlcf	___aldiv@divisor+2,f,c
  6712  002E0E  3608               	rlcf	___aldiv@divisor+3,f,c
  6713  002E10  2A09               	incf	___aldiv@counter,f,c
  6714  002E12                     l3560:
  6715  002E12  AE08               	btfss	___aldiv@divisor+3,7,c
  6716  002E14  D7F8               	goto	l3558
  6717  002E16                     u3510:
  6718  002E16  90D8               	bcf	status,0,c
  6719  002E18  360B               	rlcf	___aldiv@quotient,f,c
  6720  002E1A  360C               	rlcf	___aldiv@quotient+1,f,c
  6721  002E1C  360D               	rlcf	___aldiv@quotient+2,f,c
  6722  002E1E  360E               	rlcf	___aldiv@quotient+3,f,c
  6723  002E20  5005               	movf	___aldiv@divisor,w,c
  6724  002E22  5C01               	subwf	___aldiv@dividend,w,c
  6725  002E24  5006               	movf	___aldiv@divisor+1,w,c
  6726  002E26  5802               	subwfb	___aldiv@dividend+1,w,c
  6727  002E28  5007               	movf	___aldiv@divisor+2,w,c
  6728  002E2A  5803               	subwfb	___aldiv@dividend+2,w,c
  6729  002E2C  5008               	movf	___aldiv@divisor+3,w,c
  6730  002E2E  5804               	subwfb	___aldiv@dividend+3,w,c
  6731  002E30  A0D8               	btfss	status,0,c
  6732  002E32  D009               	goto	l3570
  6733  002E34  5005               	movf	___aldiv@divisor,w,c
  6734  002E36  5E01               	subwf	___aldiv@dividend,f,c
  6735  002E38  5006               	movf	___aldiv@divisor+1,w,c
  6736  002E3A  5A02               	subwfb	___aldiv@dividend+1,f,c
  6737  002E3C  5007               	movf	___aldiv@divisor+2,w,c
  6738  002E3E  5A03               	subwfb	___aldiv@dividend+2,f,c
  6739  002E40  5008               	movf	___aldiv@divisor+3,w,c
  6740  002E42  5A04               	subwfb	___aldiv@dividend+3,f,c
  6741  002E44  800B               	bsf	___aldiv@quotient,0,c
  6742  002E46                     l3570:
  6743  002E46  90D8               	bcf	status,0,c
  6744  002E48  3208               	rrcf	___aldiv@divisor+3,f,c
  6745  002E4A  3207               	rrcf	___aldiv@divisor+2,f,c
  6746  002E4C  3206               	rrcf	___aldiv@divisor+1,f,c
  6747  002E4E  3205               	rrcf	___aldiv@divisor,f,c
  6748  002E50  2E09               	decfsz	___aldiv@counter,f,c
  6749  002E52  D7E1               	goto	u3510
  6750  002E54                     l3574:
  6751  002E54  500A               	movf	___aldiv@sign,w,c
  6752  002E56  B4D8               	btfsc	status,2,c
  6753  002E58  D008               	goto	l3578
  6754  002E5A  1E0E               	comf	___aldiv@quotient+3,f,c
  6755  002E5C  1E0D               	comf	___aldiv@quotient+2,f,c
  6756  002E5E  1E0C               	comf	___aldiv@quotient+1,f,c
  6757  002E60  6C0B               	negf	___aldiv@quotient,c
  6758  002E62  0E00               	movlw	0
  6759  002E64  220C               	addwfc	___aldiv@quotient+1,f,c
  6760  002E66  220D               	addwfc	___aldiv@quotient+2,f,c
  6761  002E68  220E               	addwfc	___aldiv@quotient+3,f,c
  6762  002E6A                     l3578:
  6763  002E6A  C00B  F001         	movff	___aldiv@quotient,?___aldiv
  6764  002E6E  C00C  F002         	movff	___aldiv@quotient+1,?___aldiv+1
  6765  002E72  C00D  F003         	movff	___aldiv@quotient+2,?___aldiv+2
  6766  002E76  C00E  F004         	movff	___aldiv@quotient+3,?___aldiv+3
  6767  002E7A  0012               	return		;funcret
  6768  002E7C                     __end_of___aldiv:
  6769                           	opt callstack 0
  6770                           
  6771                           	psect	rparam
  6772  0000                     tosu	equ	0xFFF
  6773                           tosh	equ	0xFFE
  6774                           tosl	equ	0xFFD
  6775                           stkptr	equ	0xFFC
  6776                           pclatu	equ	0xFFB
  6777                           pclath	equ	0xFFA
  6778                           pcl	equ	0xFF9
  6779                           tblptru	equ	0xFF8
  6780                           tblptrh	equ	0xFF7
  6781                           tblptrl	equ	0xFF6
  6782                           tablat	equ	0xFF5
  6783                           prodh	equ	0xFF4
  6784                           prodl	equ	0xFF3
  6785                           indf0	equ	0xFEF
  6786                           postinc0	equ	0xFEE
  6787                           postdec0	equ	0xFED
  6788                           preinc0	equ	0xFEC
  6789                           plusw0	equ	0xFEB
  6790                           fsr0h	equ	0xFEA
  6791                           fsr0l	equ	0xFE9
  6792                           wreg	equ	0xFE8
  6793                           indf1	equ	0xFE7
  6794                           postinc1	equ	0xFE6
  6795                           postdec1	equ	0xFE5
  6796                           preinc1	equ	0xFE4
  6797                           plusw1	equ	0xFE3
  6798                           fsr1h	equ	0xFE2
  6799                           fsr1l	equ	0xFE1
  6800                           bsr	equ	0xFE0
  6801                           indf2	equ	0xFDF
  6802                           postinc2	equ	0xFDE
  6803                           postdec2	equ	0xFDD
  6804                           preinc2	equ	0xFDC
  6805                           plusw2	equ	0xFDB
  6806                           fsr2h	equ	0xFDA
  6807                           fsr2l	equ	0xFD9
  6808                           status	equ	0xFD8


Data Sizes:
    Strings     1
    Constant    160
    Data        0
    BSS         128
    Persistent  0
    Stack       0

Auto Spaces:
    Space          Size  Autos    Used
    COMRAM          127    125     127
    BANK0           128     82     128
    BANK1           256      0      80
    BANK2           256      0       0
    BANK3           256      0       0
    BANK4           256      0       0
    BANK5           244      0       0

Pointer List with Targets:

    nanf@s	PTR const unsigned char  size(2) Largest target is 1
		 -> STR_2(CODE[1]), 

    vfpfcnvrt@ap	PTR PTR void  size(2) Largest target is 2
		 -> printf@ap(COMRAM[2]), 

    printf@fmt	PTR const unsigned char  size(2) Largest target is 1
		 -> STR_1(CODE[1]), 

    printf@ap	PTR void [1] size(2) Largest target is 2
		 -> ?_printf(COMRAM[2]), 

    S736_IO_FILE$buffer	PTR unsigned char  size(2) Largest target is 0

    fputc@fp.buffer	PTR unsigned char  size(2) Largest target is 0

    fputc@fp	PTR struct _IO_FILE size(2) Largest target is 0
		 -> NULL(NULL[0]), 

    vfprintf@ap	PTR PTR void  size(2) Largest target is 2
		 -> printf@ap(COMRAM[2]), 

    vfprintf@fp	PTR struct _IO_FILE size(2) Largest target is 0
		 -> NULL(NULL[0]), 

    vfprintf@fmt	PTR const unsigned char  size(2) Largest target is 1
		 -> STR_1(CODE[1]), 

    vfprintf@cfmt	PTR unsigned char  size(2) Largest target is 1
		 -> STR_1(CODE[1]), 

    vfpfcnvrt@fp	PTR struct _IO_FILE size(2) Largest target is 0
		 -> NULL(NULL[0]), 

    vfpfcnvrt@fmt	PTR PTR unsigned char  size(2) Largest target is 2
		 -> vfprintf@cfmt(COMRAM[2]), 


Critical Paths under _main in COMRAM

    _main->_readSensors_old
    _readSensors_old->_atan2f
    _sqrtf->___fladd
    _printf->_vfprintf
    _vfprintf->_vfpfcnvrt
    _vfpfcnvrt->_fputc
    _atan2f->_atanf
    _atanf->_fabsf
    _fabsf->___fldiv
    ___flsub->___fladd
    ___fladd->___xxtofl
    ___fldiv->___fladd
    ___xxtofl->___awmod
    ___awmod->___fltol
    _UART_Init->___aldiv

Critical Paths under _main in BANK0

    _readSensors_old->_atan2f
    _atan2f->_atanf

Critical Paths under _main in BANK1

    None.

Critical Paths under _main in BANK2

    None.

Critical Paths under _main in BANK3

    None.

Critical Paths under _main in BANK4

    None.

Critical Paths under _main in BANK5

    None.

Call Graph Tables:

 ---------------------------------------------------------------------------------
 (Depth) Function   	        Calls       Base Space   Used Autos Params    Refs
 ---------------------------------------------------------------------------------
 (0) _main                                                 2     2      0   75547
                                            123 COMRAM     2     2      0
                          _UART_Init
                    _readSensors_old
 ---------------------------------------------------------------------------------
 (1) _readSensors_old                                     12    12      0   74711
                                            111 COMRAM    12    12      0
                            ___awmod
                            ___fladd
                            ___fldiv
                             ___flge
                            ___flmul
                            ___fltol
                           ___xxtofl
                             _atan2f
                             _printf
                              _sqrtf
 ---------------------------------------------------------------------------------
 (2) _sqrtf                                               49    45      4   13133
                                             46 COMRAM    49    45      4
                            ___fladd
                             ___flge
                            ___flmul
                               _nanf
 ---------------------------------------------------------------------------------
 (3) _nanf                                                 8     4      4      99
                                              0 COMRAM     8     4      4
 ---------------------------------------------------------------------------------
 (3) ___flge                                              12     4      8     790
                                              0 COMRAM    12     4      8
 ---------------------------------------------------------------------------------
 (2) _printf                                               6     4      2    1620
                                             23 COMRAM     6     4      2
                           _vfprintf
 ---------------------------------------------------------------------------------
 (3) _vfprintf                                             8     2      6    1492
                                             15 COMRAM     8     2      6
                          _vfpfcnvrt
 ---------------------------------------------------------------------------------
 (4) _vfpfcnvrt                                           40    34      6    1142
                                              9 COMRAM     6     0      6
                              _fputc
 ---------------------------------------------------------------------------------
 (5) _fputc                                                9     5      4     716
                                              0 COMRAM     9     5      4
                              _putch
 ---------------------------------------------------------------------------------
 (6) _putch                                                1     1      0       0
 ---------------------------------------------------------------------------------
 (2) _atan2f                                              56    48      8   43201
                                             87 COMRAM    24    16      8
                                             50 BANK0     32    32      0
                            ___fladd
                            ___fldiv
                            ___flneg
                            ___flsub
                      ___fpclassifyf
                              _atanf
                              _fabsf
 ---------------------------------------------------------------------------------
 (3) _atanf                                               58    54      4   23872
                                             79 COMRAM     8     4      4
                                              0 BANK0     50    50      0
                            ___fladd
                            ___fldiv
                            ___flmul
                            ___flneg
                            ___flsub
                      ___fpclassifyf
                              _fabsf
 ---------------------------------------------------------------------------------
 (3) _fabsf                                                8     4      4     199
                                             71 COMRAM     8     4      4
                            ___fldiv (ARG)
 ---------------------------------------------------------------------------------
 (4) ___fpclassifyf                                       14    10      4     363
                                              0 COMRAM    14    10      4
 ---------------------------------------------------------------------------------
 (4) ___flsub                                              8     0      8    8057
                                             46 COMRAM     8     0      8
                            ___fladd
                            ___flmul (ARG)
 ---------------------------------------------------------------------------------
 (3) ___fladd                                             16     8      8    7126
                                             30 COMRAM    16     8      8
                            ___flmul (ARG)
                           ___xxtofl (ARG)
 ---------------------------------------------------------------------------------
 (4) ___flneg                                              4     0      4     273
                                              0 COMRAM     4     0      4
 ---------------------------------------------------------------------------------
 (3) ___flmul                                             25    17      8    4176
                                              0 COMRAM    25    17      8
 ---------------------------------------------------------------------------------
 (4) ___fldiv                                             25    17      8    2311
                                             46 COMRAM    25    17      8
                            ___fladd (ARG)
                            ___flmul (ARG)
 ---------------------------------------------------------------------------------
 (2) ___xxtofl                                            14    10      4    1310
                                             16 COMRAM    14    10      4
                            ___awmod (ARG)
                            ___fltol (ARG)
 ---------------------------------------------------------------------------------
 (2) ___fltol                                             10     6      4     305
                                              0 COMRAM    10     6      4
 ---------------------------------------------------------------------------------
 (2) ___awmod                                              6     2      4     448
                                             10 COMRAM     6     2      4
                            ___fltol (ARG)
 ---------------------------------------------------------------------------------
 (1) _UART_Init                                           14    10      4     836
                                             14 COMRAM    14    10      4
                            ___aldiv
 ---------------------------------------------------------------------------------
 (2) ___aldiv                                             14     6      8     604
                                              0 COMRAM    14     6      8
 ---------------------------------------------------------------------------------
 Estimated maximum stack depth 6
 ---------------------------------------------------------------------------------

 Call Graph Graphs:

 _main (ROOT)
   _UART_Init
     ___aldiv
   _readSensors_old
     ___awmod
       ___fltol (ARG)
     ___fladd
       ___flmul (ARG)
       ___xxtofl (ARG)
         ___awmod (ARG)
           ___fltol (ARG)
         ___fltol (ARG)
     ___fldiv
       ___fladd (ARG)
         ___flmul (ARG)
         ___xxtofl (ARG)
           ___awmod (ARG)
             ___fltol (ARG)
           ___fltol (ARG)
       ___flmul (ARG)
     ___flge
     ___flmul
     ___fltol
     ___xxtofl
       ___awmod (ARG)
         ___fltol (ARG)
       ___fltol (ARG)
     _atan2f
       ___fladd
         ___flmul (ARG)
         ___xxtofl (ARG)
           ___awmod (ARG)
             ___fltol (ARG)
           ___fltol (ARG)
       ___fldiv
         ___fladd (ARG)
           ___flmul (ARG)
           ___xxtofl (ARG)
             ___awmod (ARG)
               ___fltol (ARG)
             ___fltol (ARG)
         ___flmul (ARG)
       ___flneg
       ___flsub
         ___fladd
           ___flmul (ARG)
           ___xxtofl (ARG)
             ___awmod (ARG)
               ___fltol (ARG)
             ___fltol (ARG)
         ___flmul (ARG)
       ___fpclassifyf
       _atanf
         ___fladd
           ___flmul (ARG)
           ___xxtofl (ARG)
             ___awmod (ARG)
               ___fltol (ARG)
             ___fltol (ARG)
         ___fldiv
           ___fladd (ARG)
             ___flmul (ARG)
             ___xxtofl (ARG)
               ___awmod (ARG)
                 ___fltol (ARG)
               ___fltol (ARG)
           ___flmul (ARG)
         ___flmul
         ___flneg
         ___flsub
           ___fladd
             ___flmul (ARG)
             ___xxtofl (ARG)
               ___awmod (ARG)
                 ___fltol (ARG)
               ___fltol (ARG)
           ___flmul (ARG)
         ___fpclassifyf
         _fabsf
           ___fldiv (ARG)
             ___fladd (ARG)
               ___flmul (ARG)
               ___xxtofl (ARG)
                 ___awmod (ARG)
                   ___fltol (ARG)
                 ___fltol (ARG)
             ___flmul (ARG)
       _fabsf
         ___fldiv (ARG)
           ___fladd (ARG)
             ___flmul (ARG)
             ___xxtofl (ARG)
               ___awmod (ARG)
                 ___fltol (ARG)
               ___fltol (ARG)
           ___flmul (ARG)
     _printf
       _vfprintf
         _vfpfcnvrt
           _fputc
             _putch
     _sqrtf
       ___fladd
         ___flmul (ARG)
         ___xxtofl (ARG)
           ___awmod (ARG)
             ___fltol (ARG)
           ___fltol (ARG)
       ___flge
       ___flmul
       _nanf

 Address spaces:
Name               Size   Autos  Total    Cost      Usage
BIGRAM             5F3      0       0      16        0.0%
EEDATA             100      0       0       0        0.0%
BITBANK4           100      0       0      12        0.0%
BANK4              100      0       0      13        0.0%
BITBANK3           100      0       0      10        0.0%
BANK3              100      0       0      11        0.0%
BITBANK2           100      0       0       9        0.0%
BANK2              100      0       0       6        0.0%
BITBANK1           100      0       0       8        0.0%
BANK1              100      0      50       5       31.3%
BITBANK5            F4      0       0      14        0.0%
BANK5               F4      0       0      15        0.0%
BITBANK0            80      0       0       3        0.0%
BANK0               80     52      80       4      100.0%
BITCOMRAM           7F      0       0       0        0.0%
COMRAM              7F     7D      7F       1      100.0%
BITSFR_4             0      0       0     200        0.0%
SFR_4                0      0       0     200        0.0%
BITSFR_3             0      0       0     200        0.0%
SFR_3                0      0       0     200        0.0%
BITSFR_2             0      0       0     200        0.0%
SFR_2                0      0       0     200        0.0%
BITSFR_1             0      0       0     200        0.0%
SFR_1                0      0       0     200        0.0%
BITSFR               0      0       0     200        0.0%
SFR                  0      0       0     200        0.0%
STACK                0      0       0       2        0.0%
NULL                 0      0       0       0        0.0%
ABS                  0      0     14F       7        0.0%
DATA                 0      0     14F      17        0.0%
CODE                 0      0       0       0        0.0%


Microchip Technology PIC18 Macro Assembler V2.05 build -831301201 
Symbol Table                                                                                   Wed Feb 20 17:00:03 2019

            ___fldiv@aexp 0047              ___fldiv@bexp 0046                         _t 00FE  
            ___fldiv@sign 003F                        _aT 0661                        _pi 069D  
             __CFG_BORV$2 000000              __CFG_CP0$OFF 000000              __CFG_CP1$OFF 000000  
            __CFG_CP2$OFF 000000              __CFG_CP3$OFF 000000               __CFG_OSC$HS 000000  
                     l400 2BD8                       l730 2858                       l731 2854  
                     l719 27EA                       l831 179C                       l823 1684  
                     l680 2580                       l664 24AE                       l665 248C  
                     l690 25E2                       l749 209A                       l790 293E  
                     l766 2338                       l758 22B2                       l759 22AE  
                     l855 19F6                       l960 1DF8                       l689 25E6  
                     l865 1AA6                       l963 1EB0                       l956 1DA4  
                     l797 29BC                       l965 1F86              __CFG_CPB$OFF 000000  
            __CFG_CPD$OFF 000000              ___awmod@sign 0010                       wreg 000FE8  
            ___flmul@aexp 0012              ___flmul@bexp 0013              ___flmul@sign 000D  
            ___flmul@temp 0018              ___flmul@prod 0014              __CFG_LVP$OFF 000000  
            ___fltol@exp1 000A              __CFG_WDT$OFF 000000                      l3002 20B8  
                    l3102 3130                      l3050 2278                      l3114 2D5C  
                    l3202 10AE                      l3044 225A                      l3124 2DA6  
                    l3212 11CA                      l3300 1818                      l3140 3024  
                    l3070 22F6                      l3118 2D66                      l3206 1124  
                    l3310 184C                      l3142 3048                      l3216 1206  
                    l3320 1884                      l3152 2BAC                      l3074 2314  
                    l2602 2398                      l3306 183A                      l3162 2C10  
                    l3340 1914                      l3324 1896                      l3316 1872  
                    l3156 2BC2                      l3148 2B78                      l3086 2356  
                    l2630 23E4                      l2606 239C                      l3238 14C2  
                    l3182 0F92                      l4150 18D4                      l3334 18BA  
                    l3600 2F6C                      l2704 24F4                      l3192 0FD6  
                    l3176 0F2E                      l3344 1926                      l3336 1902  
                    l4152 18F8                      l3328 18A8                      l4144 17EC  
                    l3280 16FE                      l3610 2F8E                      l2706 24F8  
                    l2714 250A                      l2626 23E0                      l3186 0FB8  
                    l4162 1BCC                      l3370 1A38                      l3362 19E4  
                    l3354 194A                      l4146 1810                      l2810 2C98  
                    l3514 1ECA                      l2900 27C2                      l2732 25A4  
                    l2724 2570                      l4164 1BEA                      l4156 1964  
                    l3348 1938                      l3356 1990                      l3292 17C0  
                    l3508 1E44                      l3614 2F9C                      l3606 2F84  
                    l2742 25BA                      l2638 2404                      l3382 1B48  
                    l3374 1AB8                      l4158 1988                      l2582 2FBE  
                    l2806 2C8E                      l3560 2E12                      l3552 2DE4  
                    l3640 2EE4                      l3624 2E9A                      l3704 2A2E  
                    l2912 2800                      l2840 26A8                      l2680 249A  
                    l3288 17AE                      l2816 2CB0                      l3528 1F5E  
                    l3480 1CE0                      l3570 2E46                      l3546 2DCC  
                    l3650 2EFC                      l2906 27E8                      l2682 249E  
                    l3378 1ADE                      l3298 17D2                      l3474 1C98  
                    l3716 2B30                      l3652 2F08                      l3644 2EF4  
                    l2860 26E8                      l2836 26A4                      l2780 265A  
                    l2748 25C4                      l2668 2440                      l3388 1BB2  
                    l3492 1D62                      l3740 0A62                      l3558 2E06  
                    l3574 2E54                      l3590 2F4A                      l2942 28C0  
                    l2918 281E                      l2782 265C                      l3726 06AC  
                    l3680 29A4                      l2952 28F6                      l2856 26E4  
                    l2776 2652                      l2768 262C                      l2696 24D2  
                    l3496 1D78                      l3488 1D0C                      l3578 2E6A  
                    l3594 2F56                      l3658 2F24                      l3674 296C  
                    l2954 28F8                      l2946 28EA                      l2938 289C  
                    l2882 274A                      l2874 2732                      l3746 0B22  
                    l3676 2972                      l3668 294E                      l2892 279A  
                    l2868 271C                      l3780 30C4                      l3598 2F64  
                    l3686 29E2                      l3678 297E                      l2974 2046  
                    l3688 29EE                      l2992 2086                      l2976 204A  
                    l2994 208A                      l2978 205A                      STR_1 06A1  
                    STR_2 06A1                      _BRGH 007D62                      _CREN 007D5C  
                    u2100 2FFE                      u2200 2462                      u3000 2D9E  
                    u2210 2472                      u3010 2DA0                      u2220 2474  
                    u3100 0F1C                      u3110 0F80                      u2400 25DC  
                    u3200 164E                      u2080 2FB6                      u4000 0926  
                    u2250 24B6                      u4010 0970                      u3300 19CE  
                    u3220 171C                      u4100 0CC6                      u4020 0972  
                    u3230 1756                      u4030 09BC                      u3080 0EDC  
                    u4040 09BE                      u3225 1712                      u4050 0A08  
                    u3235 174C                      u2460 2638                      u2380 25C8  
                    u4060 0A0A                      u3085 0ED2                      u4117 30D2  
                    u3510 2E16                      u3350 1CAA                      u4070 0A4E  
                    u3271 185C                      u3600 2E88                      u2720 28AA  
                    u3610 2EB8                      u2730 28CE                      u4090 0AF2  
                    u2820 20A6                      u2910 2304                      u2830 221C  
                    u3615 2EAE                      u2680 284E                      u2920 2322  
                    u3385 1D20                      u3570 2F70                      u3650 2F0E  
                    u3730 29F8                      u3386 1D26                      u2835 2212  
                    u3475 1FCA                      u3387 1D34                      u3900 07AA  
                    u3805 2ACC                      u2870 22A8                      u2950 2D22  
                    u3910 07F4                      u3830 06C4                      u3815 2B04  
                    u3920 07F6                      u3840 06C6                      u3930 0840  
                    u3850 0710                      u2955 2D18                      u3940 0842  
                    u3860 0712                      u3950 088C                      u3870 075C  
                    u3775 2A52                      u3960 088E                      u3880 075E  
                    u3785 2A8A                      u3970 08D8                      u3890 07A8  
                    u2995 2D80                      u3980 08DA                      u3990 0924  
                    _SPEN 007D5F                      _TRMT 007D61                      _TXEN 007D65  
                    _SYNC 007D64              __CFG_PWRT$ON 000000                      _dbuf 0130  
                    _dist 00EA                      _main 30AA                      _nanf 318E  
                    _prec 00FA                      _vect 00D2                      _nout 007E  
                    _sins 0631                      _tiny 0695                      fsr1h 000FE2  
                    fsr2h 000FDA                      fsr1l 000FE1                      fsr2l 000FD9  
           ___fpclassifyf 2CE4                      prodh 000FF4                      prodl 000FF3  
                    start 0000             __CFG_IESO$OFF 000000           ___fldiv@new_exp 0040  
            ___param_bank 000000             ___fltol@sign1 0009           __end_of___aldiv 2E7C  
         __end_of___fladd 2678                     ?_main 0001                     ?_nanf 0001  
         __end_of___fldiv 2900           __end_of___flneg 3142           __end_of___awmod 2FA6  
         __end_of___flmul 236C           __end_of___flsub 30AA           __end_of___fltol 2F36  
            vfpfcnvrt@fmt 000C                     _SPBRG 000FAF                     _TRISB 000F93  
                   _TRISC 000F94                     _TXREG 000FAD             __CFG_WRT0$OFF 000000  
           __CFG_WRT1$OFF 000000             __CFG_WRT2$OFF 000000             __CFG_WRT3$OFF 000000  
          __CFG_EBTR0$OFF 000000            __CFG_FCMEN$OFF 000000            __CFG_EBTR1$OFF 000000  
          __CFG_EBTR2$OFF 000000            __CFG_EBTR3$OFF 000000        __size_of_UART_Init 0104  
           __CFG_WRTB$OFF 000000             __CFG_WRTC$OFF 000000             __CFG_WRTD$OFF 000000  
                   _fabsf 30E0            __CFG_EBTRB$OFF 000000                     _angle 00E6  
                   _atanf 0E9E                     _flags 00FC                     _errno 00F6  
                   _fputc 2FA6                     _pi_lo 0699                     _width 00F8  
                   _tmp_x 00EE                     _tmp_y 00F2                     _putch 31B0  
                   _sqrtf 1BF4                     nanf@s 0001                     nanf@u 0005  
                   tablat 000FF5                     status 000FD8            ?___fpclassifyf 0001  
          __CFG_PBADEN$ON 000000            __CFG_MCLRE$OFF 000000           __initialization 3142  
            __end_of_main 30E0              __end_of_nanf 31B0              __end_of_sins 0661  
            __end_of_tiny 0699                    ??_main 007C                    ??_nanf 0005  
           __activetblptr 000002    atan2f@__xc8_float_word 00BE           _readSensors_old 06A4  
                  ?_fabsf 0048                    ?_atanf 0050                    ?_fputc 0001  
                  ?_putch 0001                    ?_sqrtf 002F          __end_of___xxtofl 2A40  
          __CFG_XINST$OFF 000000              vfprintf@cfmt 0016         __end_of_UART_Init 2B44  
                  ___flge 2B44                 ??___aldiv 0009                 ??___fladd 0027  
               ??___fldiv 0037                 ??___flneg 0005            __CFG_STVREN$ON 000000  
               ??___awmod 000F                 ??___flmul 0009                    _angle2 00E2  
                  _atan2f 1616                 ??___flsub 0037                 ??___fltol 0005  
                  _atanhi 0685                    _atanlo 0675                    _cosins 0601  
                  fabsf@u 004C                    fabsf@x 0048                    _s_data 0100  
                  clear_0 3148                    clear_1 3154           ___awmod@divisor 000D  
                  atanf@w 00A4                    atanf@x 0050                    atanf@z 00AA  
         ___awmod@counter 000F                    _printf 3168                    fputc@c 0001  
         ___fpclassifyf@e 0009           ___fpclassifyf@u 000B           ___fpclassifyf@x 0001  
            __mediumconst 0000                    tblptrh 000FF7                    tblptrl 000FF6  
                  tblptru 000FF8                    putch@c 0001          __end_of_vfprintf 3064  
                  sqrtf@i 0040                    sqrtf@m 0054                    sqrtf@q 0048  
                  sqrtf@r 0058                    sqrtf@s 003C                    sqrtf@t 004C  
                  sqrtf@x 002F                    sqrtf@z 0050                ___flge@ff1 0001  
              ___flge@ff2 0005           ??___fpclassifyf 0005              ___xxtofl@arg 001B  
            ___xxtofl@exp 001A              ___xxtofl@val 0011                __accesstop 0080  
 __end_of__initialization 315E                ___flneg@f1 0001             ___rparam_used 000001  
              ___fltol@f1 0001            __pcstackCOMRAM 0001             __end_of_fabsf 3114  
           __end_of_atanf 1616             __end_of_fputc 3012             __end_of_pi_lo 069D  
           __end_of_putch 31B2             __end_of_sqrtf 201A                __end_of_aT 0675  
              __end_of_pi 06A1   __end_of_readSensors_old 0E9E                   ??_fabsf 004C  
                 ??_atanf 0054                   ??_fputc 0005                   ??_putch 0001  
                 ??_sqrtf 0033                __pbssBANK0 00D2                __pbssBANK1 0100  
              _atanf$1020 008C                _atanf$1016 009C                _atanf$1017 0084  
              _atanf$1018 00A0                _atanf$1019 0088                   ?___flge 0001  
                 ?_atan2f 0058                   ?_printf 0018                 ?___xxtofl 0011  
      __size_of_vfpfcnvrt 00D0                   __Hparam 0000                   __Lparam 0000  
                 ___aldiv 2DB0           __size_of___flge 00D0                   ___fladd 236C  
                 ___fldiv 2678                   ___flneg 3114                   ___awmod 2F36  
                 ___flmul 201A                   ___flsub 3064                   ___fltol 2E7C  
         __size_of_atan2f 05DE                 ?_vfprintf 0010              __psmallconst 0600  
                 __pcinit 3142                   __ramtop 0600      _readSensors_old$1012 0074  
                 __ptext0 30AA                   __ptext1 06A4                   __ptext2 1BF4  
                 __ptext3 318E                   __ptext4 2B44                   __ptext5 3168  
                 __ptext6 3012                   __ptext7 2C14                   __ptext8 2FA6  
                 __ptext9 31B0           __size_of_printf 0026          ?_readSensors_old 0001  
                 atan2f@m 00CE                   atan2f@x 005C                   atan2f@y 0058  
                 atan2f@z 00C2                ??___xxtofl 0015          ___awmod@dividend 000B  
        ___aldiv@dividend 0001                   atanf@s1 0090                   atanf@s2 0094  
                 atanf@id 00A8                   atanf@ix 00AE      readSensors_old@i_171 007A  
    end_of_initialization 315E                   fputc@fp 0003             __Lmediumconst 0000  
       __end_of_vfpfcnvrt 2CE4          ___aldiv@quotient 000B                   postdec2 000FDD  
                 postinc0 000FEE                   postinc1 000FE6                   postinc2 000FDE  
              ??_vfprintf 0016                   sqrtf@ix 005C                 _UART_Init 2A40  
             ___fladd@grs 002E             ___xxtofl@sign 0019               ___fldiv@grs 0042  
             ___fldiv@rem 003B               ___flmul@grs 000E            __end_of___flge 2C14  
             vfpfcnvrt@ap 000E               vfpfcnvrt@fp 000A            __end_of_atan2f 1BF4  
              ?_UART_Init 000F            __end_of_atanhi 0695            __end_of_atanlo 0685  
          __end_of_cosins 0631            __end_of_printf 318E       start_initialization 3142  
   __end_of___fpclassifyf 2DB0               vfprintf@fmt 0012                  ??___flge 0009  
                ??_atan2f 0060          __CFG_LPT1OSC$OFF 000000               _atan2f$1013 00B2  
             _atan2f$1014 00B6               _atan2f$1015 00BA                  ??_printf 001A  
               ___fladd@a 0023                 ___fladd@b 001F                 ___fldiv@a 0033  
               ___fldiv@b 002F     atanf@__xc8_float_word 0080                 ___flmul@a 0005  
               ___flmul@b 0001               __pbssCOMRAM 007E                 ___flsub@a 0033  
               ___flsub@b 002F             __pcstackBANK0 0080         __size_of___xxtofl 0140  
       __CFG_CCP2MX$PORTC 000000                  ?___aldiv 0001                  ?___fladd 001F  
                ?___fldiv 002F                  ?___flneg 0001                  ?___awmod 000B  
                ?___flmul 0001                  ?___flsub 002F                  ?___fltol 0001  
             ??_UART_Init 0013         __size_of_vfprintf 0052                 fabsf@F463 00DE  
             __smallconst 0600            __size_of_fabsf 0034            __size_of_atanf 0778  
          __size_of_fputc 006C                UART_Init@x 001B            __size_of_putch 0002  
          __size_of_sqrtf 0426           ___aldiv@divisor 0005           ___aldiv@counter 0009  
                _LATBbits 000F8A                  _LATCbits 000F8B                 atanf@sign 0098  
        __CFG_WDTPS$32768 000000                 _vfpfcnvrt 2C14         UART_Init@baudrate 000F  
__size_of_readSensors_old 07FA                  __Hrparam 0000                vfprintf@ap 0014  
                __Lrparam 0000                vfprintf@fp 0010        __CFG_BOREN$SBORDIS 000000  
        __size_of___aldiv 00CC          __size_of___fladd 030C          __size_of___fldiv 0288  
        __size_of___flneg 002E          __size_of___awmod 0070          __size_of___flmul 0352  
        __size_of___flsub 0046          __size_of___fltol 00BA                ?_vfpfcnvrt 000A  
      ___fpclassifyf@F463 00DA                  ___xxtofl 2900                  __ptext10 1616  
                __ptext11 0E9E                  __ptext20 2E7C                  __ptext12 30E0  
                __ptext21 2F36                  __ptext13 2CE4                  __ptext22 2A40  
                __ptext14 3064                  __ptext23 2DB0                  __ptext15 236C  
                __ptext16 3114                  __ptext17 201A                  __ptext18 2678  
                __ptext19 2900          readSensors_old@i 0078             __size_of_main 0036  
           __size_of_nanf 0022                  atan2f@ix 00C6                  atan2f@iy 00CA  
                _vfprintf 3012                 printf@fmt 0018         ??_readSensors_old 0070  
                printf@ap 001C               ??_vfpfcnvrt 0010    __size_of___fpclassifyf 00CC  
            ___aldiv@sign 000A             ___fladd@signs 002B     sqrtf@__xc8_float_word 0044  
            ___fladd@aexp 002C              ___fladd@bexp 002D  
